BASIC......PAGE 0001

LINE# LOC   CODE        LINE


00001  0000              .LIB   DISCLAIMER
00002  0000              ;****************************************
00003  0000              ;*                                      *
00004  0000              ;* BBBBB   AAAA   SSS  IIII  CCCC       *
00005  0000              ;* BB  BB AA  AA SS  S  II  CC   C      *
00006  0000              ;* BB  BB AA  AA  SS    II  CC          *
00007  0000              ;* BBBBB  AAAAAA   SS   II  CC          *
00008  0000              ;* BB  BB AA  AA    SS  II  CC          *
00009  0000              ;* BB  BB AA  AA S  SS  II  CC   C      *
00010  0000              ;* BBBBB  AA  AA  SSS  IIII  CCCC       *
00011  0000              ;*                                      *
00012  0000              ;****************************************
00013  0000              ;
00014  0000              ;****************************************
00015  0000              ;*                                      *
00016  0000              ;* PET BASIC VERSION 2.2                *
00017  0000              ;*      THIS VERSION OF PET BASIC IS    *
00018  0000              ;* DESIGNED TO FUNCTION WITH THE KERNAL *
00019  0000              ;* PROVIDED IN THE FOLOWING MACHINES:   *
00020  0000              ;*      2001-4/8 (B/N)                  *
00021  0000              ;*      4016/4032                       *
00022  0000              ;*      8032                            *
00023  0000              ;*      TOY                             *
00024  0000              ;*      VIC-20/VIC-40                   *
00025  0000              ;*    * COMMODORE 10/64                 *
00026  0000              ;* COPYRIGHT (C) 1982 BY                *
00027  0000              ;* COMMODORE BUSINESS MACHINES          *
00028  0000              ;*                                      *
00029  0000              ;****************************************



00031  0000              ;*****LISTING DATE -1200 10 APRIL 1982***



00033  0000              ;****************************************
00034  0000              ;* THIS SOFTWARE IS FURNISHED FOR USE IN*
00035  0000              ;* THE ABOVE LISTED MACHINES ONLY.      *
00036  0000              ;*                                      *
00037  0000              ;* COPIES THEREOF MAY NOT BE PROVIDED   *
00038  0000              ;* OR MADE AVAILABLE FOR USE ON ANY     *
00039  0000              ;* SYSTEM.                              *
00040  0000              ;*                                      *
00041  0000              ;* THE INFORMATION IN THIS DOCUMENT IS  *
00042  0000              ;* SUBJECT TO CHANGE WITHOUT NOTICE.    *
00043  0000              ;*                                      *
00044  0000              ;* NO RESPONSIBILITY IS ASSUMED FOR     *
00045  0000              ;* RELIABILITY OF THIS SOFTWARE.  RSR   *
00046  0000              ;*                                      *
00047  0000              ;****************************************
00048  0000              .END
00049  0000              .LIB   DECLARE








DECLARATIONS......PAGE 0002

LINE# LOC   CODE        LINE


00051  0000              ADDPRC =1
00052  0000              ROMLOC =$A000          ;VIC-40 BASIC ROM
00053  0000              LINLEN =40             ;VIC SCREEN SIZE ?WHY?
00054  0000              BUFLEN =89             ;VIC BUFFER
00055  0000              BUFPAG =2
00056  0000              BUF    =512
00057  0000              STKEND =507
00058  0000              CLMWID =10             ;PRINT WINDOW 10 CHARS
00059  0000              PI     =255
00060  0000              NUMLEV =23
00061  0000              STRSIZ =3
00062  0000              BLANK0 *=*+3           ;6510 REGISTER AREA
00063  0003              ADRAY1 *=*+2           ;CONVERT FLOAT->INTEGER
00064  0005              ADRAY2 *=*+2           ;CONVERT INTEGER->FLOAT
00065  0007              INTEGR
00066  0007              CHARAC *=*+1
00067  0008              ENDCHR *=*+1
00068  0009              TRMPOS *=*+1
00069  000A              VERCK  *=*+1
00070  000B              COUNT  *=*+1
00071  000C              DIMFLG *=*+1
00072  000D              VALTYP *=*+1
00073  000E              INTFLG *=*+1
00074  000F              GARBFL
00075  000F              DORES  *=*+1
00076  0010              SUBFLG *=*+1
00077  0011              INPFLG *=*+1
00078  0012              DOMASK
00079  0012              TANSGN *=*+1
00080  0013              CHANNL *=*+1
00081  0014              POKER
00082  0014              LINNUM *=*+2
00083  0016              TEMPPT *=*+1
00084  0017              LASTPT *=*+2
00085  0019              TEMPST *=*+9
00086  0022              INDEX
00087  0022              INDEX1 *=*+2
00088  0024              INDEX2 *=*+2
00089  0026              RESHO  *=*+1
00090  0027              RESMOH *=*+1
00091  0028              ADDEND
00092  0028              RESMO  *=*+1
00093  0029              RESLO  *=*+1
00094  002A                     *=*+1
00095  002B              TXTTAB *=*+2
00096  002D              VARTAB *=*+2
00097  002F              ARYTAB *=*+2
00098  0031              STREND *=*+2
00099  0033              FRETOP *=*+2
00100  0035              FRESPC *=*+2
00101  0037              MEMSIZ *=*+2
00102  0039              CURLIN *=*+2
00103  003B              OLDLIN *=*+2
00104  003D              OLDTXT *=*+2
00105  003F              DATLIN *=*+2






DECLARATIONS......PAGE 0003

LINE# LOC   CODE        LINE


00106  0041              DATPTR *=*+2
00107  0043              INPPTR *=*+2
00108  0045              VARNAM *=*+2
00109  0047              FDECPT 
00110  0047              VARPNT *=*+2
00111  0049              LSTPNT
00112  0049              ANDMSK
00113  0049              FORPNT *=*+2
00114  004B              EORMSK =FORPNT+1
00115  004B              VARTXT
00116  004B              OPPTR  *=*+2
00117  004D              OPMASK *=*+1
00118  004E              GRBPNT
00119  004E              TEMPF3
00120  004E              DEFPNT *=*+2
00121  0050              DSCPNT *=*+2
00122  0052                     *=*+1
00123  0053              FOUR6  *=*+1
00124  0054              JMPER  *=*+1
00125  0055              SIZE   *=*+1
00126  0056              OLDOV  *=*+1
00127  0057              TEMPF1 *=*+1
00128  0058              ARYPNT
00129  0058              HIGHDS *=*+2
00130  005A              HIGHTR *=*+2
00131  005C              TEMPF2
00132  005C                     *=*+1
00133  005D              DECCNT
00134  005D              LOWDS  *=*+2
00135  005F              GRBTOP
00136  005F              DPTFLG
00137  005F              LOWTR  *=*+1
00138  0060              EXPSGN *=*+1
00139  0061              TENEXP =LOWDS+1
00140  0061              EPSGN  =LOWTR+1
00141  0061              DSCTMP
00142  0061              FAC
00143  0061              FACEXP *=*+1
00144  0062              FACHO  *=*+1
00145  0063              FACMOH *=*+1
00146  0064              INDICE
00147  0064              FACMO  *=*+1
00148  0065              FACLO  *=*+1
00149  0066              FACSGN *=*+1
00150  0067              DEGREE
00151  0067              SGNFLG *=*+1
00152  0068              BITS   *=*+1
00153  0069              ARGEXP *=*+1
00154  006A              ARGHO  *=*+1
00155  006B              ARGMOH *=*+1
00156  006C              ARGMO  *=*+1
00157  006D              ARGLO  *=*+1
00158  006E              ARGSGN *=*+1
00159  006F              STRNGI
00160  006F              ARISGN *=*+1






DECLARATIONS......PAGE 0004

LINE# LOC   CODE        LINE


00161  0070              FACOV  *=*+1
00162  0071              BUFPTR
00163  0071              STRNG2
00164  0071              POLYPT
00165  0071              CURTOL
00166  0071              FBUFPT *=*+2
00167  0073              CHRGET *=*+6
00168  0079              CHRGOT *=*+1
00169  007A              TXTPTR *=*+6
00170  0080              QNUM   *=*+10
00171  008A              CHRRTS *=*+1
00172  008B              RNDX   *=*+5
00173  0090                     *=255
00174  00FF              LOFBUF *=*+1
00175  0100              FBUFFR *=*+1
00176  0101              STRNG1 =ARISGN
00177  0101              ;
00178  0101                     *=$0300         ;BASIC INDIRECTS
00179  0300              IERROR *=*+2           ;INDIRECT ERROR (OUTPUT ER
ROR IN .X)
00180  0302              IMAIN  *=*+2           ;INDIRECT MAIN (SYSTEM DIR
ECT LOOP)
00181  0304              ICRNCH *=*+2           ;INDIRECT CRUNCH (TOKENIZA
TION ROUTINE)
00182  0306              IQPLOP *=*+2           ;INDIRECT LIST (CHAR LIST)

00183  0308              IGONE  *=*+2           ;INDIRECT GONE (CHAR DISPA
TCH)
00184  030A              IEVAL  *=*+2           ;INDIRECT EVAL (SYMBOL EVA
LUATION)
00185  030C              ;TEMP STORAGE UNTILL SYSTEM INTERGRATION
00186  030C              ; SYS 6502 REGS
00187  030C              SAREG  *=*+1           ;.A REG
00188  030D              SXREG  *=*+1           ;.X REG
00189  030E              SYREG  *=*+1           ;.Y REG
00190  030F              SPREG  *=*+1           ;.P REG
00191  0310              USRPOK *=*+3           ;USER FUNCTION DISPATCH
00192  0313                     *=$0300+20      ;SYSTEM INDIRECTS FOLLOW
00193  0314              .END
00194  0314              .LIB   TOKENS



























TOKENS......PAGE 0005

LINE# LOC   CODE        LINE


00196  0314                     *=ROMLOC
00197  A000  94 E3              .WOR INIT       ;C000 HARD RESET
00198  A002  7B E3              .WOR PANIC      ;C000 SOFT RESET
00199  A004  43 42              .BYT 'CBMBASIC'
00200  A00C  30 A8       STMDSP .WOR END-1
00201  A00E  41 A7              .WOR FOR-1
00202  A010  1D AD              .WOR NEXT-1
00203  A012  F7 A8              .WOR DATA-1
00204  A014  A4 AB              .WOR INPUTN-1
00205  A016  BE AB              .WOR INPUT-1
00206  A018  80 B0              .WOR DIM-1
00207  A01A  05 AC              .WOR READ-1
00208  A01C  A4 A9              .WOR LET-1
00209  A01E  9F A8              .WOR GOTO-1
00210  A020  70 A8              .WOR RUN-1
00211  A022  27 A9              .WOR IF-1
00212  A024  1C A8              .WOR RESTOR-1
00213  A026  82 A8              .WOR GOSUB-1
00214  A028  D1 A8              .WOR RETURN-1
00215  A02A  3A A9              .WOR REM-1
00216  A02C  2E A8              .WOR STOP-1
00217  A02E  4A A9              .WOR ONGOTO-1
00218  A030  2C B8              .WOR FNWAIT-1
00219  A032  67 E1              .WOR CLOAD-1
00220  A034  55 E1              .WOR CSAVE-1
00221  A036  64 E1              .WOR CVERF-1
00222  A038  B2 B3              .WOR DEF-1
00223  A03A  23 B8              .WOR POKE-1
00224  A03C  7F AA              .WOR PRINTN-1
00225  A03E  9F AA              .WOR PRINT-1
00226  A040  56 A8              .WOR CONT-1
00227  A042  9B A6              .WOR LIST-1
00228  A044  5D A6              .WOR CLEAR-1
00229  A046  85 AA              .WOR CMD-1
00230  A048  29 E1              .WOR CSYS-1 
00231  A04A  BD E1              .WOR COPEN-1
00232  A04C  C6 E1              .WOR CCLOS-1
00233  A04E  7A AB              .WOR GET-1
00234  A050  41 A6              .WOR SCRATH-1
00235  A052  39 BC       FUNDSP .WOR SGN
00236  A054  CC BC              .WOR INT
00237  A056  58 BC              .WOR ABS
00238  A058  10 03       USRLOC .WOR USRPOK
00239  A05A  7D B3              .WOR FRE
00240  A05C  9E B3              .WOR POS
00241  A05E  71 BF              .WOR SQR
00242  A060  97 E0              .WOR RND
00243  A062  EA B9              .WOR LOG
00244  A064  ED BF              .WOR EXP
00245  A066  64 E2              .WOR COS
00246  A068  6B E2              .WOR SIN
00247  A06A  B4 E2              .WOR TAN
00248  A06C  0E E3              .WOR ATN
00249  A06E  0D B8              .WOR PEEK
00250  A070  7C B7              .WOR LEN






TOKENS......PAGE 0006

LINE# LOC   CODE        LINE


00251  A072  65 B4              .WOR STRD
00252  A074  AD B7              .WOR VAL
00253  A076  8B B7              .WOR ASC
00254  A078  EC B6              .WOR CHRD
00255  A07A  00 B7              .WOR LEFTD
00256  A07C  2C B7              .WOR RIGHTD
00257  A07E  37 B7              .WOR MIDD
00258  A080  79          OPTAB  .BYT 121
00259  A081  69 B8              .WOR FADDT-1
00260  A083  79                 .BYT 121
00261  A084  52 B8              .WOR FSUBT-1
00262  A086  7B                 .BYT 123
00263  A087  2A BA              .WOR FMULTT-1
00264  A089  7B                 .BYT 123
00265  A08A  11 BB              .WOR FDIVT-1
00266  A08C  7F                 .BYT 127
00267  A08D  7A BF              .WOR FPWRT-1
00268  A08F  50                 .BYT 80
00269  A090  E8 AF              .WOR ANDOP-1
00270  A092  46                 .BYT 70
00271  A093  E5 AF              .WOR OROP-1
00272  A095  7D          NEGTAB .BYT 125
00273  A096  B3 BF              .WOR NEGOP-1 
00274  A098  5A          NOTTAB .BYT 90
00275  A099  D3 AE              .WOR NOTOP-1
00276  A09B  64          PTDORL .BYT 100
00277  A09C  15 B0              .WOR DOREL-1
00278  A09E              Q=128-1
00279  A09E  45 4E       RESLST .BYT 'EN',$C4
00279  A0A0  C4 
00280  A0A1              ENDTK  =@200
00281  A0A1  46 4F              .BYT 'FO',$D2
00281  A0A3  D2 
00282  A0A4              FORTK  =@201
00283  A0A4  4E 45 58           .BYT 'NEX',$D4
00283  A0A7  D4 
00284  A0A8  44 41 54           .BYT 'DAT',$C1
00284  A0AB  C1 
00285  A0AC              DATATK =@203
00286  A0AC  49 4E              .BYT 'INPUT',$A3
00286  A0B1  A3 
00287  A0B2  49 4E              .BYT 'INPU',$D4
00287  A0B6  D4 
00288  A0B7  44 49              .BYT 'DI',$CD
00288  A0B9  CD 
00289  A0BA  52 45 41           .BYT 'REA',$C4
00289  A0BD  C4 
00290  A0BE  4C 45              .BYT 'LE',$D4
00290  A0C0  D4 
00291  A0C1  47 4F 54           .BYT 'GOT',$CF
00291  A0C4  CF 
00292  A0C5              GOTOTK =@211
00293  A0C5  52 55              .BYT 'RU',$CE
00293  A0C7  CE 
00294  A0C8  49                 .BYT 'I',$C6






TOKENS......PAGE 0007

LINE# LOC   CODE        LINE


00294  A0C9  C6 
00295  A0CA  52 45              .BYT 'RESTOR',$C5
00295  A0D0  C5 
00296  A0D1  47 4F              .BYT 'GOSU',$C2
00296  A0D5  C2 
00297  A0D6              GOSUTK =@215
00298  A0D6  52 45              .BYT 'RETUR',$CE
00298  A0DB  CE 
00299  A0DC  52 45              .BYT 'RE',$CD
00299  A0DE  CD 
00300  A0DF              REMTK  =@217
00301  A0DF  53 54 4F           .BYT 'STO',$D0
00301  A0E2  D0 
00302  A0E3  4F                 .BYT 'O',$CE
00302  A0E4  CE 
00303  A0E5  57 41 49           .BYT 'WAI',$D4
00303  A0E8  D4 
00304  A0E9  4C 4F 41           .BYT 'LOA',$C4
00304  A0EC  C4 
00305  A0ED  53 41 56           .BYT 'SAV',$C5
00305  A0F0  C5 
00306  A0F1  56 45              .BYT 'VERIF',$D9
00306  A0F6  D9 
00307  A0F7  44 45              .BYT 'DE',$C6
00307  A0F9  C6 
00308  A0FA  50 4F 4B           .BYT 'POK',$C5
00308  A0FD  C5 
00309  A0FE  50 52              .BYT 'PRINT',$A3
00309  A103  A3 
00310  A104  50 52              .BYT 'PRIN',$D4
00310  A108  D4 
00311  A109              PRINTK =@231
00312  A109  43 4F 4E           .BYT 'CON',$D4
00312  A10C  D4 
00313  A10D  4C 49 53           .BYT 'LIS',$D4
00313  A110  D4 
00314  A111  43 4C              .BYT 'CL',$D2
00314  A113  D2 
00315  A114  43 4D              .BYT 'CM',$C4
00315  A116  C4 
00316  A117  53 59              .BYT 'SY',$D3
00316  A119  D3 
00317  A11A  4F 50 45           .BYT 'OPE',$CE
00317  A11D  CE 
00318  A11E  43 4C              .BYT 'CLOS',$C5
00318  A122  C5 
00319  A123  47 45              .BYT 'GE',$D4
00319  A125  D4 
00320  A126  4E 45              .BYT 'NE',$D7
00320  A128  D7 
00321  A129              SCRATK =@242
00322  A129              .END
00323  A129              .LIB   TOKEN2








TOKEN2......PAGE 0008

LINE# LOC   CODE        LINE


00325  A129  54 41 42           .BYT 'TAB',$A8
00325  A12C  A8 
00326  A12D              TABTK  =@243
00327  A12D  54                 .BYT 'T',$CF
00327  A12E  CF 
00328  A12F              TOTK   =@244
00329  A12F  46                 .BYT 'F',$CE
00329  A130  CE 
00330  A131              FNTK   =@245
00331  A131  53 50 43           .BYT 'SPC',$A8
00331  A134  A8 
00332  A135              SPCTK  =@246
00333  A135  54 48 45           .BYT 'THE',$CE
00333  A138  CE 
00334  A139              THENTK =@247
00335  A139  4E 4F              .BYT 'NO',$D4
00335  A13B  D4 
00336  A13C              NOTTK  =@250
00337  A13C  53 54 45           .BYT 'STE',$D0
00337  A13F  D0 
00338  A140              STEPTK =@251
00339  A140  AB                 .BYT $AB
00340  A141              PLUSTK =@252
00341  A141  AD                 .BYT $AD
00342  A142              MINUTK =@253
00343  A142  AA                 .BYT $AA
00344  A143  AF                 .BYT $AF
00345  A144  DE                 .BYT $DE
00346  A145  41 4E              .BYT 'AN',$C4
00346  A147  C4 
00347  A148  4F                 .BYT 'O',$D2
00347  A149  D2 
00348  A14A  BE                 .BYT 190
00349  A14B              GREATK =@261
00350  A14B  BD                 .BYT $BD
00351  A14C              EQULTK =@262
00352  A14C  BC                 .BYT 188
00353  A14D              LESSTK =@263
00354  A14D  53 47              .BYT 'SG',$CE
00354  A14F  CE 
00355  A150              ONEFUN =@264
00356  A150  49 4E              .BYT 'IN',$D4
00356  A152  D4 
00357  A153  41 42              .BYT 'AB',$D3
00357  A155  D3 
00358  A156  55 53              .BYT 'US',$D2
00358  A158  D2 
00359  A159  46 52              .BYT 'FR',$C5
00359  A15B  C5 
00360  A15C  50 4F              .BYT 'PO',$D3
00360  A15E  D3 
00361  A15F  53 51              .BYT 'SQ',$D2
00361  A161  D2 
00362  A162  52 4E              .BYT 'RN',$C4
00362  A164  C4 






TOKEN2......PAGE 0009

LINE# LOC   CODE        LINE


00363  A165  4C 4F              .BYT 'LO',$C7
00363  A167  C7 
00364  A168  45 58              .BYT 'EX',$D0
00364  A16A  D0 
00365  A16B  43 4F              .BYT 'CO',$D3
00365  A16D  D3 
00366  A16E  53 49              .BYT 'SI',$CE
00366  A170  CE 
00367  A171  54 41              .BYT 'TA',$CE
00367  A173  CE 
00368  A174  41 54              .BYT 'AT',$CE
00368  A176  CE 
00369  A177  50 45 45           .BYT 'PEE',$CB
00369  A17A  CB 
00370  A17B  4C 45              .BYT 'LE',$CE
00370  A17D  CE 
00371  A17E  53 54 52           .BYT 'STR',$A4
00371  A181  A4 
00372  A182  56 41              .BYT 'VA',$CC
00372  A184  CC 
00373  A185  41 53              .BYT 'AS',$C3
00373  A187  C3 
00374  A188  43 48 52           .BYT 'CHR',$A4
00374  A18B  A4 
00375  A18C              LASNUM =@307
00376  A18C  4C 45              .BYT 'LEFT',$A4
00376  A190  A4 
00377  A191  52 49              .BYT 'RIGHT',$A4
00377  A196  A4 
00378  A197  4D 49 44           .BYT 'MID',$A4
00378  A19A  A4 
00379  A19B  47                 .BYT 'G',$CF
00379  A19C  CF 
00380  A19D              GOTK   =@313
00381  A19D  00                 .BYT 0


























ERROR MESSAGES......PAGE 0010

LINE# LOC   CODE        LINE


00383  A19E  54 4F       ERR01  .BYT 'TOO MANY FILE',$D3
00383  A1AB  D3 
00384  A1AC  46 49       ERR02  .BYT 'FILE OPE',$CE
00384  A1B4  CE 
00385  A1B5  46 49       ERR03  .BYT 'FILE NOT OPE',$CE
00385  A1C1  CE 
00386  A1C2  46 49       ERR04  .BYT 'FILE NOT FOUN',$C4
00386  A1CF  C4 
00387  A1D0  44 45       ERR05  .BYT 'DEVICE NOT PRESEN',$D4
00387  A1E1  D4 
00388  A1E2  4E 4F       ERR06  .BYT 'NOT INPUT FIL',$C5
00388  A1EF  C5 
00389  A1F0  4E 4F       ERR07  .BYT 'NOT OUTPUT FIL',$C5
00389  A1FE  C5 
00390  A1FF  4D 49       ERR08  .BYT 'MISSING FILE NAM',$C5
00390  A20F  C5 
00391  A210  49 4C       ERR09  .BYT 'ILLEGAL DEVICE NUMBE',$D2
00391  A224  D2 
00392  A225  4E 45       ERR10  .BYT 'NEXT WITHOUT FO',$D2
00392  A234  D2 
00393  A235              ERRNF  =10
00394  A235  53 59       ERR11  .BYT 'SYNTA',$D8
00394  A23A  D8 
00395  A23B              ERRSN  =11
00396  A23B  52 45       ERR12  .BYT 'RETURN WITHOUT GOSU',$C2
00396  A24E  C2 
00397  A24F              ERRRG  =12
00398  A24F  4F 55       ERR13  .BYT 'OUT OF DAT',$C1
00398  A259  C1 
00399  A25A              ERROD  =13
00400  A25A  49 4C       ERR14  .BYT 'ILLEGAL QUANTIT',$D9
00400  A269  D9 
00401  A26A              ERRFC  =14
00402  A26A  4F 56       ERR15  .BYT 'OVERFLO',$D7
00402  A271  D7 
00403  A272              ERROV  =15
00404  A272  4F 55       ERR16  .BYT 'OUT OF MEMOR',$D9
00404  A27E  D9 
00405  A27F              ERROM  =16
00406  A27F  55 4E       ERR17  .BYT 'UNDEF',$27
00406  A284  27 
00407  A285  44 20              .BYT 'D STATEMEN',$D4
00407  A28F  D4 
00408  A290              ERRUS  =17
00409  A290  42 41       ERR18  .BYT 'BAD SUBSCRIP',$D4
00409  A29C  D4 
00410  A29D              ERRBS  =18
00411  A29D  52 45       ERR19  .BYT 'REDIM',$27,'D ARRA',$D9
00411  A2A2  27 
00411  A2A3  44 20 
00411  A2A9  D9 
00412  A2AA              ERRDD  =19
00413  A2AA  44 49       ERR20  .BYT 'DIVISION BY ZER',$CF
00413  A2B9  CF 
00414  A2BA              ERRDVO =20






ERROR MESSAGES......PAGE 0011

LINE# LOC   CODE        LINE


00415  A2BA  49 4C       ERR21  .BYT 'ILLEGAL DIREC',$D4
00415  A2C7  D4 
00416  A2C8              ERRID  =21
00417  A2C8  54 59       ERR22  .BYT 'TYPE MISMATC',$C8
00417  A2D4  C8 
00418  A2D5              ERRTM  =22
00419  A2D5  53 54       ERR23  .BYT 'STRING TOO LON',$C7
00419  A2E3  C7 
00420  A2E4              ERRLS  =23
00421  A2E4  46 49       ERR24  .BYT 'FILE DAT',$C1
00421  A2EC  C1 
00422  A2ED              ERRBD  =24
00423  A2ED  46 4F       ERR25  .BYT 'FORMULA TOO COMPLE',$D8
00423  A2FF  D8 
00424  A300              ERRST  =25
00425  A300  43 41 4E    ERR26  .BYT 'CAN',$27,'T CONTINU',$C5
00425  A303  27 
00425  A304  54 20 
00425  A30D  C5 
00426  A30E              ERRCN  =26
00427  A30E  55 4E       ERR27  .BYT 'UNDEF',$27,'D FUNCTIO',$CE
00427  A313  27 
00427  A314  44 20 
00427  A31D  CE 
00428  A31E              ERRUF  =27
00429  A31E  56 45       ERR28  .BYT 'VERIF',$D9
00429  A323  D9 
00430  A324              ERVFY  =28
00431  A324  4C 4F 41    ERR29  .BYT 'LOA',$C4
00431  A327  C4 
00432  A328              ERLOAD =29






























ERROR MESSAGES......PAGE 0012

LINE# LOC   CODE        LINE


00434  A328              ; TABLE TO TRANSLATE ERROR MESSAGE #
00435  A328              ; TO ADDRESS OF STRING CONTAINING MESSAGE
00436  A328              ;
00437  A328  9E A1       ERRTAB .WOR ERR01
00438  A32A  AC A1              .WOR ERR02
00439  A32C  B5 A1              .WOR ERR03
00440  A32E  C2 A1              .WOR ERR04
00441  A330  D0 A1              .WOR ERR05
00442  A332  E2 A1              .WOR ERR06
00443  A334  F0 A1              .WOR ERR07
00444  A336  FF A1              .WOR ERR08
00445  A338  10 A2              .WOR ERR09
00446  A33A  25 A2              .WOR ERR10
00447  A33C  35 A2              .WOR ERR11
00448  A33E  3B A2              .WOR ERR12
00449  A340  4F A2              .WOR ERR13
00450  A342  5A A2              .WOR ERR14
00451  A344  6A A2              .WOR ERR15
00452  A346  72 A2              .WOR ERR16
00453  A348  7F A2              .WOR ERR17
00454  A34A  90 A2              .WOR ERR18
00455  A34C  9D A2              .WOR ERR19
00456  A34E  AA A2              .WOR ERR20
00457  A350  BA A2              .WOR ERR21
00458  A352  C8 A2              .WOR ERR22
00459  A354  D5 A2              .WOR ERR23
00460  A356  E4 A2              .WOR ERR24
00461  A358  ED A2              .WOR ERR25
00462  A35A  00 A3              .WOR ERR26
00463  A35C  0E A3              .WOR ERR27
00464  A35E  1E A3              .WOR ERR28
00465  A360  24 A3              .WOR ERR29
00466  A362  83 A3              .WOR ERR30





00468  A364  0D          OKMSG  .BYT $D,'OK',$D,$0
00468  A365  4F 4B 
00468  A367  0D 
00468  A368  00 
00469  A369  20          ERR    .BYT $20,' ERROR',0 ;ADD A SPACE FOR VIC-4
0 SCREEN
00469  A36A  20 45 
00469  A370  00 
00470  A371  20 49       INTXT  .BYT ' IN ',0
00470  A375  00 
00471  A376  0D          REDDY  .BYT $D,$A,'READY.',$D,$A,0
00471  A377  0A 
00471  A378  52 45 
00471  A37E  0D 
00471  A37F  0A 
00471  A380  00 
00472  A381              ERBRK  =30
00473  A381  0D          BRKTXT .BYT $D,$A






ERROR MESSAGES......PAGE 0013

LINE# LOC   CODE        LINE


00473  A382  0A 
00474  A383  42 52       ERR30  .BYT 'BREAK',0,$A0 ;SHIFTED SPACE
00474  A388  00 
00474  A389  A0 

























































ERROR MESSAGES......PAGE 0014

LINE# LOC   CODE        LINE


00476  A38A              FORSIZ =@22
00477  A38A  BA          FNDFOR TSX
00478  A38B  E8                 INX
00479  A38C  E8                 INX
00480  A38D  E8                 INX
00481  A38E  E8                 INX
00482  A38F  BD 01 01    FFLOOP LDA 257,X
00483  A392  C9 81              CMP #FORTK
00484  A394  D0 21              BNE FFRTS
00485  A396  A5 4A              LDA FORPNT+1
00486  A398  D0 0A              BNE CMPFOR
00487  A39A  BD 02 01           LDA 258,X
00488  A39D  85 49              STA FORPNT
00489  A39F  BD 03 01           LDA 259,X
00490  A3A2  85 4A              STA FORPNT+1
00491  A3A4  DD 03 01    CMPFOR CMP 259,X
00492  A3A7  D0 07              BNE ADDFRS
00493  A3A9  A5 49              LDA FORPNT
00494  A3AB  DD 02 01           CMP 258,X
00495  A3AE  F0 07              BEQ FFRTS
00496  A3B0  8A          ADDFRS TXA 
00497  A3B1  18                 CLC
00498  A3B2  69 12              ADC #FORSIZ
00499  A3B4  AA                 TAX
00500  A3B5  D0 D8              BNE FFLOOP
00501  A3B7  60          FFRTS  RTS
00502  A3B8  20 08 A4    BLTU   JSR REASON
00503  A3BB  85 31              STA STREND
00504  A3BD  84 32              STY STREND+1
00505  A3BF  38          BLTUC  SEC
00506  A3C0  A5 5A              LDA HIGHTR
00507  A3C2  E5 5F              SBC LOWTR
00508  A3C4  85 22              STA INDEX
00509  A3C6  A8                 TAY
00510  A3C7  A5 5B              LDA HIGHTR+1
00511  A3C9  E5 60              SBC LOWTR+1
00512  A3CB  AA                 TAX
00513  A3CC  E8                 INX
00514  A3CD  98                 TYA
00515  A3CE  F0 23              BEQ DECBLT
00516  A3D0  A5 5A              LDA HIGHTR
00517  A3D2  38                 SEC
00518  A3D3  E5 22              SBC INDEX
00519  A3D5  85 5A              STA HIGHTR
00520  A3D7  B0 03              BCS BLT1
00521  A3D9  C6 5B              DEC HIGHTR+1
00522  A3DB  38                 SEC
00523  A3DC  A5 58       BLT1   LDA HIGHDS
00524  A3DE  E5 22              SBC INDEX
00525  A3E0  85 58              STA HIGHDS
00526  A3E2  B0 08              BCS MOREN1
00527  A3E4  C6 59              DEC HIGHDS+1
00528  A3E6  90 04              BCC MOREN1
00529  A3E8  B1 5A       BLTLP  LDA (HIGHTR)Y
00530  A3EA  91 58              STA (HIGHDS)Y






ERROR MESSAGES......PAGE 0015

LINE# LOC   CODE        LINE


00531  A3EC  88          MOREN1 DEY
00532  A3ED  D0 F9              BNE BLTLP
00533  A3EF  B1 5A              LDA (HIGHTR),Y
00534  A3F1  91 58              STA (HIGHDS),Y
00535  A3F3  C6 5B       DECBLT DEC HIGHTR+1
00536  A3F5  C6 59              DEC HIGHDS+1
00537  A3F7  CA                 DEX
00538  A3F8  D0 F2              BNE MOREN1
00539  A3FA  60                 RTS
00540  A3FB  0A          GETSTK ASL A
00541  A3FC  69 3E              ADC #NUMLEV+NUMLEV+16
00542  A3FE  B0 35              BCS OMERR
00543  A400  85 22              STA INDEX
00544  A402  BA                 TSX
00545  A403  E4 22              CPX INDEX
00546  A405  90 2E              BCC OMERR
00547  A407  60                 RTS
00548  A408  C4 34       REASON CPY FRETOP+1
00549  A40A  90 28              BCC REARTS
00550  A40C  D0 04              BNE TRYMOR
00551  A40E  C5 33              CMP FRETOP
00552  A410  90 22              BCC REARTS
00553  A412  48          TRYMOR PHA
00554  A413  A2 09              LDX #8+ADDPRC
00555  A415  98                 TYA
00556  A416  48          REASAV PHA
00557  A417  B5 57              LDA HIGHDS-1,X
00558  A419  CA                 DEX
00559  A41A  10 FA              BPL REASAV
00560  A41C  20 26 B5           JSR GARBA2
00561  A41F  A2 F7              LDX #248-ADDPRC
00562  A421  68          REASTO PLA
00563  A422  95 61              STA HIGHDS+8+ADDPRC,X
00564  A424  E8                 INX
00565  A425  30 FA              BMI REASTO
00566  A427  68                 PLA
00567  A428  A8                 TAY
00568  A429  68                 PLA
00569  A42A  C4 34              CPY FRETOP+1
00570  A42C  90 06              BCC REARTS
00571  A42E  D0 05              BNE OMERR
00572  A430  C5 33              CMP FRETOP
00573  A432  B0 01              BCS OMERR
00574  A434  60          REARTS RTS
00575  A435              .END
00576  A435              .LIB   CODE1















CODE1......PAGE 0016

LINE# LOC   CODE        LINE


00578  A435  A2 10       OMERR  LDX #ERROM
00579  A437  6C 00 03    ERROR  JMP (IERROR)
00580  A43A  8A          NERROX TXA
00581  A43B  0A                 ASL A
00582  A43C  AA                 TAX
00583  A43D  BD 26 A3           LDA ERRTAB-2,X
00584  A440  85 22              STA INDEX1
00585  A442  BD 27 A3           LDA ERRTAB-1,X
00586  A445  85 23              STA INDEX1+1
00587  A447  20 CC FF           JSR CLSCHN
00588  A44A  A9 00              LDA #0
00589  A44C  85 13              STA CHANNL
00590  A44E  20 D7 AA    ERRCRD JSR CRDO
00591  A451  20 45 AB           JSR OUTQST
00592  A454  A0 00              LDY #0
00593  A456  B1 22       GETERR LDA (INDEX1)Y
00594  A458  48                 PHA
00595  A459  29 7F              AND #127
00596  A45B  20 47 AB           JSR OUTDO
00597  A45E  C8                 INY
00598  A45F  68                 PLA
00599  A460  10 F4              BPL GETERR
00600  A462  20 7A A6           JSR STKINI
00601  A465  A9 69              LDA #<ERR
00602  A467  A0 A3              LDY #>ERR
00603  A469  20 1E AB    ERRFIN JSR STROUT
00604  A46C  A4 3A              LDY CURLIN+1
00605  A46E  C8                 INY
00606  A46F  F0 03              BEQ READYX
00607  A471  20 C2 BD           JSR INPRT





00609  A474  A9 76       READYX LDA #<REDDY
00610  A476  A0 A3              LDY #>REDDY
00611  A478  20 1E AB           JSR STROUT
00612  A47B  A9 80              LDA #$80        ;DIRECT MESSAGES ON
00613  A47D  20 90 FF           JSR SETMSG      ;FROM KERNAL





00615  A480  6C 02 03    MAIN   JMP (IMAIN)
00616  A483  20 60 A5    NMAIN  JSR INLIN
00617  A486  86 7A              STX TXTPTR
00618  A488  84 7B              STY TXTPTR+1
00619  A48A  20 73 00           JSR CHRGET
00620  A48D  AA                 TAX
00621  A48E  F0 F0              BEQ MAIN
00622  A490  A2 FF              LDX #255
00623  A492  86 3A              STX CURLIN+1
00624  A494  90 06              BCC MAIN1






CODE1......PAGE 0017

LINE# LOC   CODE        LINE


00625  A496  20 79 A5           JSR CRUNCH
00626  A499  4C E1 A7           JMP GONE
00627  A49C  20 6B A9    MAIN1  JSR LINGET
00628  A49F  20 79 A5           JSR CRUNCH
00629  A4A2  84 0B              STY COUNT
00630  A4A4  20 13 A6           JSR FNDLIN
00631  A4A7  90 44              BCC NODEL
00632  A4A9  A0 01              LDY #1
00633  A4AB  B1 5F              LDA (LOWTR)Y
00634  A4AD  85 23              STA INDEX1+1
00635  A4AF  A5 2D              LDA VARTAB
00636  A4B1  85 22              STA INDEX1
00637  A4B3  A5 60              LDA LOWTR+1
00638  A4B5  85 25              STA INDEX2+1
00639  A4B7  A5 5F              LDA LOWTR
00640  A4B9  88                 DEY
00641  A4BA  F1 5F              SBC (LOWTR)Y 
00642  A4BC  18                 CLC
00643  A4BD  65 2D              ADC VARTAB
00644  A4BF  85 2D              STA VARTAB
00645  A4C1  85 24              STA INDEX2
00646  A4C3  A5 2E              LDA VARTAB+1
00647  A4C5  69 FF              ADC #255
00648  A4C7  85 2E              STA VARTAB+1
00649  A4C9  E5 60              SBC LOWTR+1
00650  A4CB  AA                 TAX
00651  A4CC  38                 SEC
00652  A4CD  A5 5F              LDA LOWTR
00653  A4CF  E5 2D              SBC VARTAB
00654  A4D1  A8                 TAY
00655  A4D2  B0 03              BCS QDECT1
00656  A4D4  E8                 INX
00657  A4D5  C6 25              DEC INDEX2+1
00658  A4D7  18          QDECT1 CLC
00659  A4D8  65 22              ADC INDEX1
00660  A4DA  90 03              BCC MLOOP
00661  A4DC  C6 23              DEC INDEX1+1
00662  A4DE  18                 CLC
00663  A4DF  B1 22       MLOOP  LDA (INDEX1)Y
00664  A4E1  91 24              STA (INDEX2)Y
00665  A4E3  C8                 INY 
00666  A4E4  D0 F9              BNE MLOOP
00667  A4E6  E6 23              INC INDEX1+1
00668  A4E8  E6 25              INC INDEX2+1
00669  A4EA  CA                 DEX
00670  A4EB  D0 F2              BNE MLOOP
00671  A4ED  20 59 A6    NODEL  JSR RUNC
00672  A4F0  20 33 A5           JSR LNKPRG
00673  A4F3  AD 00 02           LDA BUF
00674  A4F6  F0 88              BEQ MAIN
00675  A4F8  18                 CLC
00676  A4F9  A5 2D              LDA VARTAB
00677  A4FB  85 5A              STA HIGHTR 
00678  A4FD  65 0B              ADC COUNT
00679  A4FF  85 58              STA HIGHDS






CODE1......PAGE 0018

LINE# LOC   CODE        LINE


00680  A501  A4 2E              LDY VARTAB+1
00681  A503  84 5B              STY HIGHTR+1
00682  A505  90 01              BCC NODELC
00683  A507  C8                 INY
00684  A508  84 59       NODELC STY HIGHDS+1
00685  A50A  20 B8 A3           JSR BLTU
00686  A50D  A5 14              LDA LINNUM
00687  A50F  A4 15              LDY LINNUM+1
00688  A511  8D FE 01           STA BUF-2
00689  A514  8C FF 01           STY BUF-1
00690  A517  A5 31              LDA STREND
00691  A519  A4 32              LDY STREND+1
00692  A51B  85 2D              STA VARTAB
00693  A51D  84 2E              STY VARTAB+1
00694  A51F  A4 0B              LDY COUNT
00695  A521  88                 DEY
00696  A522  B9 FC 01    STOLOP LDA BUF-4,Y
00697  A525  91 5F              STA (LOWTR)Y
00698  A527  88                 DEY
00699  A528  10 F8              BPL STOLOP
00700  A52A  20 59 A6    FINI   JSR RUNC
00701  A52D  20 33 A5           JSR LNKPRG
00702  A530  4C 80 A4           JMP MAIN
00703  A533  A5 2B       LNKPRG LDA TXTTAB
00704  A535  A4 2C              LDY TXTTAB+1
00705  A537  85 22              STA INDEX
00706  A539  84 23              STY INDEX+1
00707  A53B  18                 CLC 
00708  A53C  A0 01       CHEAD  LDY #1
00709  A53E  B1 22              LDA (INDEX)Y
00710  A540  F0 1D              BEQ LNKRTS
00711  A542  A0 04              LDY #4
00712  A544  C8          CZLOOP INY
00713  A545  B1 22              LDA (INDEX)Y
00714  A547  D0 FB              BNE CZLOOP
00715  A549  C8                 INY
00716  A54A  98                 TYA
00717  A54B  65 22              ADC INDEX
00718  A54D  AA                 TAX
00719  A54E  A0 00              LDY #0
00720  A550  91 22              STA (INDEX)Y
00721  A552  A5 23              LDA INDEX+1
00722  A554  69 00              ADC #0
00723  A556  C8                 INY
00724  A557  91 22              STA (INDEX)Y
00725  A559  86 22              STX INDEX
00726  A55B  85 23              STA INDEX+1
00727  A55D  90 DD              BCC CHEAD
00728  A55F  60          LNKRTS RTS





00730  A560              ;FUNCTION TO GET A LINE ONE CHARACTER AT






CODE1......PAGE 0019

LINE# LOC   CODE        LINE


00731  A560              ;A TIME FROM THE INPUT CHANNEL AND
00732  A560              ;BUILD IT IN THE INPUT BUFFER.
00733  A560              ;
00734  A560  A2 00       INLIN  LDX #0
00735  A562              ;
00736  A562  20 12 E1    INLINC JSR INCHR
00737  A565  C9 0D              CMP #13         ;A CARRIAGE RETURN?
00738  A567  F0 0D              BEQ FININ1      ;YES...DONE BUILD
00739  A569              ;
00740  A569  9D 00 02           STA BUF,X       ;PUT IT AWAY
00741  A56C  E8                 INX
00742  A56D  E0 59              CPX #BUFLEN     ;MAX CHARACTER LINE?
00743  A56F  90 F1              BCC INLINC      ;NO...O.K.
00744  A571              ;
00745  A571  A2 17              LDX #ERRLS      ;STRING TOO LONG ERROR
00746  A573  4C 37 A4           JMP ERROR
00747  A576              ;
00748  A576  4C CA AA    FININ1 JMP FININL
00749  A579              .END
00750  A579              .LIB   CODE2









































CODE2......PAGE 0020

LINE# LOC   CODE        LINE


00752  A579              BUFOFS =@1000
00753  A579  6C 04 03    CRUNCH JMP (ICRNCH)
00754  A57C  A6 7A       NCRNCH LDX TXTPTR
00755  A57E  A0 04              LDY #4
00756  A580  84 0F              STY DORES
00757  A582  BD 00 02    KLOOP  LDA BUFOFS,X
00758  A585  10 07              BPL CMPSPC
00759  A587  C9 FF              CMP #PI
00760  A589  F0 3E              BEQ STUFFH
00761  A58B  E8                 INX
00762  A58C  D0 F4              BNE KLOOP
00763  A58E  C9 20       CMPSPC CMP #' 
00764  A590  F0 37              BEQ STUFFH
00765  A592  85 08              STA ENDCHR
00766  A594  C9 22              CMP #34
00767  A596  F0 56              BEQ STRNG
00768  A598  24 0F              BIT DORES
00769  A59A  70 2D              BVS STUFFH
00770  A59C  C9 3F              CMP #'?
00771  A59E  D0 04              BNE KLOOP1
00772  A5A0  A9 99              LDA #PRINTK
00773  A5A2  D0 25              BNE STUFFH
00774  A5A4  C9 30       KLOOP1 CMP #'0
00775  A5A6  90 04              BCC MUSTCR
00776  A5A8  C9 3C              CMP #60
00777  A5AA  90 1D              BCC STUFFH
00778  A5AC  84 71       MUSTCR STY BUFPTR
00779  A5AE  A0 00              LDY #0
00780  A5B0  84 0B              STY COUNT
00781  A5B2  88                 DEY
00782  A5B3  86 7A              STX TXTPTR
00783  A5B5  CA                 DEX
00784  A5B6  C8          RESER  INY
00785  A5B7  E8                 INX
00786  A5B8  BD 00 02    RESCON LDA BUFOFS,X
00787  A5BB  38                 SEC
00788  A5BC  F9 9E A0           SBC RESLST,Y
00789  A5BF  F0 F5              BEQ RESER
00790  A5C1  C9 80              CMP #128
00791  A5C3  D0 30              BNE NTHIS
00792  A5C5  05 0B              ORA COUNT
00793  A5C7  A4 71       GETBPT LDY BUFPTR
00794  A5C9  E8          STUFFH INX
00795  A5CA  C8                 INY
00796  A5CB  99 FB 01           STA BUF-5,Y
00797  A5CE  B9 FB 01           LDA BUF-5,Y
00798  A5D1  F0 36              BEQ CRDONE
00799  A5D3  38                 SEC
00800  A5D4  E9 3A              SBC #':
00801  A5D6  F0 04              BEQ COLIS
00802  A5D8  C9 49              CMP #DATATK-$3A
00803  A5DA  D0 02              BNE NODATT
00804  A5DC  85 0F       COLIS  STA DORES
00805  A5DE  38          NODATT SEC
00806  A5DF  E9 55              SBC #REMTK-$3A






CODE2......PAGE 0021

LINE# LOC   CODE        LINE


00807  A5E1  D0 9F              BNE KLOOP
00808  A5E3  85 08              STA ENDCHR
00809  A5E5  BD 00 02    STR1   LDA BUFOFS,X
00810  A5E8  F0 DF              BEQ STUFFH
00811  A5EA  C5 08              CMP ENDCHR
00812  A5EC  F0 DB              BEQ STUFFH
00813  A5EE  C8          STRNG  INY
00814  A5EF  99 FB 01           STA BUF-5,Y
00815  A5F2  E8                 INX
00816  A5F3  D0 F0              BNE STR1
00817  A5F5  A6 7A       NTHIS  LDX TXTPTR
00818  A5F7  E6 0B              INC COUNT
00819  A5F9  C8          NTHIS1 INY
00820  A5FA  B9 9D A0           LDA RESLST-1,Y
00821  A5FD  10 FA              BPL NTHIS1
00822  A5FF  B9 9E A0           LDA RESLST,Y
00823  A602  D0 B4              BNE RESCON
00824  A604  BD 00 02           LDA BUFOFS,X
00825  A607  10 BE              BPL GETBPT
00826  A609  99 FD 01    CRDONE STA BUF-3,Y
00827  A60C  C6 7B              DEC TXTPTR+1
00828  A60E              ZZ1    =BUF-1
00829  A60E  A9 FF              LDA #<ZZ1
00830  A610  85 7A              STA TXTPTR
00831  A612  60                 RTS
00832  A613  A5 2B       FNDLIN LDA TXTTAB
00833  A615  A6 2C              LDX TXTTAB+1
00834  A617  A0 01       FNDLNC LDY #1
00835  A619  85 5F              STA LOWTR
00836  A61B  86 60              STX LOWTR+1
00837  A61D  B1 5F              LDA (LOWTR)Y
00838  A61F  F0 1F              BEQ FLINRT
00839  A621  C8                 INY
00840  A622  C8                 INY
00841  A623  A5 15              LDA LINNUM+1
00842  A625  D1 5F              CMP (LOWTR)Y
00843  A627  90 18              BCC FLNRTS
00844  A629  F0 03              BEQ FNDLO1 
00845  A62B  88                 DEY
00846  A62C  D0 09              BNE AFFRTS
00847  A62E  A5 14       FNDLO1 LDA LINNUM
00848  A630  88                 DEY
00849  A631  D1 5F              CMP (LOWTR)Y
00850  A633  90 0C              BCC FLNRTS
00851  A635  F0 0A              BEQ FLNRTS
00852  A637  88          AFFRTS DEY
00853  A638  B1 5F              LDA (LOWTR)Y
00854  A63A  AA                 TAX
00855  A63B  88                 DEY
00856  A63C  B1 5F              LDA (LOWTR)Y
00857  A63E  B0 D7              BCS FNDLNC
00858  A640  18          FLINRT CLC
00859  A641  60          FLNRTS RTS
00860  A642  D0 FD       SCRATH BNE FLNRTS
00861  A644  A9 00       SCRTCH LDA #0






CODE2......PAGE 0022

LINE# LOC   CODE        LINE


00862  A646  A8                 TAY
00863  A647  91 2B              STA (TXTTAB)Y
00864  A649  C8                 INY
00865  A64A  91 2B              STA (TXTTAB)Y
00866  A64C  A5 2B              LDA TXTTAB
00867  A64E  18                 CLC
00868  A64F  69 02              ADC #2
00869  A651  85 2D              STA VARTAB
00870  A653  A5 2C              LDA TXTTAB+1
00871  A655  69 00              ADC #0
00872  A657  85 2E              STA VARTAB+1
00873  A659  20 8E A6    RUNC   JSR STXTPT
00874  A65C  A9 00              LDA #0
00875  A65E  D0 2D       CLEAR  BNE STKRTS
00876  A660  20 E7 FF    CLEARC JSR CCALL       ;MOVED FOR V2 ORIG FOR RS-
232
00877  A663  A5 37       CLEART LDA MEMSIZ      ;ENTRY FOR OPEN & CLOSE ME
MSIZ CHANGES
00878  A665  A4 38              LDY MEMSIZ+1
00879  A667  85 33              STA FRETOP
00880  A669  84 34              STY FRETOP+1
00881  A66B  A5 2D              LDA VARTAB
00882  A66D  A4 2E              LDY VARTAB+1
00883  A66F  85 2F              STA ARYTAB
00884  A671  84 30              STY ARYTAB+1
00885  A673  85 31              STA STREND
00886  A675  84 32              STY STREND+1
00887  A677  20 1D A8    FLOAD  JSR RESTOR
00888  A67A  A2 19       STKINI LDX #TEMPST
00889  A67C  86 16              STX TEMPPT
00890  A67E  68                 PLA 
00891  A67F  A8                 TAY
00892  A680  68                 PLA
00893  A681  A2 FA              LDX #STKEND-257
00894  A683  9A                 TXS
00895  A684  48                 PHA
00896  A685  98                 TYA
00897  A686  48                 PHA
00898  A687  A9 00              LDA #0
00899  A689  85 3E              STA OLDTXT+1
00900  A68B  85 10              STA SUBFLG
00901  A68D  60          STKRTS RTS
00902  A68E  18          STXTPT CLC
00903  A68F  A5 2B              LDA TXTTAB
00904  A691  69 FF              ADC #255
00905  A693  85 7A              STA TXTPTR
00906  A695  A5 2C              LDA TXTTAB+1
00907  A697  69 FF              ADC #255
00908  A699  85 7B              STA TXTPTR+1
00909  A69B  60                 RTS
00910  A69C              .END
00911  A69C              .LIB   CODE3











CODE3......PAGE 0023

LINE# LOC   CODE        LINE


00913  A69C  90 06       LIST   BCC GOLST
00914  A69E  F0 04              BEQ GOLST
00915  A6A0  C9 AB              CMP #MINUTK
00916  A6A2  D0 E9              BNE STKRTS
00917  A6A4  20 6B A9    GOLST  JSR LINGET
00918  A6A7  20 13 A6           JSR FNDLIN
00919  A6AA  20 79 00           JSR CHRGOT
00920  A6AD  F0 0C              BEQ LSTEND
00921  A6AF  C9 AB              CMP #MINUTK
00922  A6B1  D0 8E              BNE FLNRTS
00923  A6B3  20 73 00           JSR CHRGET
00924  A6B6  20 6B A9           JSR LINGET
00925  A6B9  D0 86              BNE FLNRTS
00926  A6BB  68          LSTEND PLA
00927  A6BC  68                 PLA
00928  A6BD  A5 14              LDA LINNUM
00929  A6BF  05 15              ORA LINNUM+1
00930  A6C1  D0 06              BNE LIST4
00931  A6C3  A9 FF              LDA #255
00932  A6C5  85 14              STA LINNUM
00933  A6C7  85 15              STA LINNUM+1
00934  A6C9  A0 01       LIST4  LDY #1
00935  A6CB  84 0F              STY DORES
00936  A6CD  B1 5F              LDA (LOWTR)Y
00937  A6CF  F0 43              BEQ GRODY
00938  A6D1  20 2C A8           JSR ISCNTC
00939  A6D4  20 D7 AA           JSR CRDO
00940  A6D7  C8                 INY
00941  A6D8  B1 5F              LDA (LOWTR)Y
00942  A6DA  AA                 TAX
00943  A6DB  C8                 INY
00944  A6DC  B1 5F              LDA (LOWTR)Y
00945  A6DE  C5 15              CMP LINNUM+1
00946  A6E0  D0 04              BNE TSTDUN
00947  A6E2  E4 14              CPX LINNUM
00948  A6E4  F0 02              BEQ TYPLIN
00949  A6E6  B0 2C       TSTDUN BCS GRODY
00950  A6E8  84 49       TYPLIN STY LSTPNT
00951  A6EA  20 CD BD           JSR LINPRT
00952  A6ED  A9 20              LDA #' 
00953  A6EF  A4 49       PRIT4  LDY LSTPNT
00954  A6F1  29 7F              AND #127
00955  A6F3  20 47 AB    PLOOP  JSR OUTDO
00956  A6F6  C9 22              CMP #34
00957  A6F8  D0 06              BNE PLOOP1
00958  A6FA  A5 0F              LDA DORES
00959  A6FC  49 FF              EOR #@377
00960  A6FE  85 0F              STA DORES
00961  A700  C8          PLOOP1 INY
00962  A701  F0 11              BEQ GRODY
00963  A703  B1 5F              LDA (LOWTR)Y
00964  A705  D0 10              BNE QPLOP
00965  A707  A8                 TAY
00966  A708  B1 5F              LDA (LOWTR)Y
00967  A70A  AA                 TAX






CODE3......PAGE 0024

LINE# LOC   CODE        LINE


00968  A70B  C8                 INY
00969  A70C  B1 5F              LDA (LOWTR)Y
00970  A70E  86 5F              STX LOWTR
00971  A710  85 60              STA LOWTR+1
00972  A712  D0 B5              BNE LIST4
00973  A714  4C 86 E3    GRODY  JMP READY
00974  A717  6C 06 03    QPLOP  JMP (IQPLOP)
00975  A71A  10 D7       NQPLOP BPL PLOOP
00976  A71C  C9 FF              CMP #PI
00977  A71E  F0 D3              BEQ PLOOP
00978  A720  24 0F              BIT DORES
00979  A722  30 CF              BMI PLOOP
00980  A724  38                 SEC
00981  A725  E9 7F              SBC #127
00982  A727  AA                 TAX
00983  A728  84 49              STY LSTPNT
00984  A72A  A0 FF              LDY #255
00985  A72C  CA          RESRCH DEX
00986  A72D  F0 08              BEQ PRIT3
00987  A72F  C8          RESCR1 INY
00988  A730  B9 9E A0           LDA RESLST,Y
00989  A733  10 FA              BPL RESCR1
00990  A735  30 F5              BMI RESRCH
00991  A737  C8          PRIT3  INY
00992  A738  B9 9E A0           LDA RESLST,Y
00993  A73B  30 B2              BMI PRIT4
00994  A73D  20 47 AB           JSR OUTDO
00995  A740  D0 F5              BNE PRIT3
00996  A742  A9 80       FOR    LDA #128
00997  A744  85 10              STA SUBFLG
00998  A746  20 A5 A9           JSR LET
00999  A749  20 8A A3           JSR FNDFOR
01000  A74C  D0 05              BNE NOTOL
01001  A74E  8A                 TXA
01002  A74F  69 0F              ADC #FORSIZ-3
01003  A751  AA                 TAX
01004  A752  9A                 TXS
01005  A753  68          NOTOL  PLA
01006  A754  68                 PLA
01007  A755  A9 09              LDA #8+ADDPRC
01008  A757  20 FB A3           JSR GETSTK
01009  A75A  20 06 A9           JSR DATAN
01010  A75D  18                 CLC
01011  A75E  98                 TYA
01012  A75F  65 7A              ADC TXTPTR
01013  A761  48                 PHA
01014  A762  A5 7B              LDA TXTPTR+1
01015  A764  69 00              ADC #0
01016  A766  48                 PHA
01017  A767  A5 3A              LDA CURLIN+1
01018  A769  48                 PHA
01019  A76A  A5 39              LDA CURLIN
01020  A76C  48                 PHA
01021  A76D  A9 A4              LDA #TOTK
01022  A76F  20 FF AE           JSR SYNCHR






CODE3......PAGE 0025

LINE# LOC   CODE        LINE


01023  A772  20 8D AD           JSR CHKNUM
01024  A775  20 8A AD           JSR FRMNUM
01025  A778  A5 66              LDA FACSGN
01026  A77A  09 7F              ORA #127
01027  A77C  25 62              AND FACHO
01028  A77E  85 62              STA FACHO
01029  A780  A9 8B              LDA #<LDFONE
01030  A782  A0 A7              LDY #>LDFONE
01031  A784  85 22              STA INDEX1
01032  A786  84 23              STY INDEX1+1
01033  A788  4C 43 AE           JMP FORPSH
01034  A78B  A9 BC       LDFONE LDA #<FONE
01035  A78D  A0 B9              LDY #>FONE
01036  A78F  20 A2 BB           JSR MOVFM
01037  A792  20 79 00           JSR CHRGOT
01038  A795  C9 A9              CMP #STEPTK
01039  A797  D0 06              BNE ONEON
01040  A799  20 73 00           JSR CHRGET
01041  A79C  20 8A AD           JSR FRMNUM
01042  A79F  20 2B BC    ONEON  JSR SIGN
01043  A7A2  20 38 AE           JSR PUSHF
01044  A7A5  A5 4A              LDA FORPNT+1
01045  A7A7  48                 PHA
01046  A7A8  A5 49              LDA FORPNT
01047  A7AA  48                 PHA
01048  A7AB  A9 81              LDA #FORTK
01049  A7AD  48                 PHA
01050  A7AE              .END
01051  A7AE              .LIB   CODE4
































CODE4......PAGE 0026

LINE# LOC   CODE        LINE


01053  A7AE  20 2C A8    NEWSTT JSR ISCNTC
01054  A7B1  A5 7A              LDA TXTPTR
01055  A7B3  A4 7B              LDY TXTPTR+1
01056  A7B5  C0 02              CPY #BUFPAG
01057  A7B7  EA                 NOP
01058  A7B8  F0 04              BEQ DIRCON
01059  A7BA  85 3D              STA OLDTXT
01060  A7BC  84 3E              STY OLDTXT+1
01061  A7BE  A0 00       DIRCON LDY #0
01062  A7C0  B1 7A              LDA (TXTPTR)Y
01063  A7C2  D0 43              BNE MORSTS
01064  A7C4  A0 02              LDY #2
01065  A7C6  B1 7A              LDA (TXTPTR)Y
01066  A7C8  18                 CLC
01067  A7C9  D0 03              BNE DIRCN1
01068  A7CB  4C 4B A8           JMP ENDCON
01069  A7CE  C8          DIRCN1 INY
01070  A7CF  B1 7A              LDA (TXTPTR)Y
01071  A7D1  85 39              STA CURLIN
01072  A7D3  C8                 INY
01073  A7D4  B1 7A              LDA (TXTPTR)Y
01074  A7D6  85 3A              STA CURLIN+1
01075  A7D8  98                 TYA
01076  A7D9  65 7A              ADC TXTPTR
01077  A7DB  85 7A              STA TXTPTR
01078  A7DD  90 02              BCC GONE
01079  A7DF  E6 7B              INC TXTPTR+1
01080  A7E1  6C 08 03    GONE   JMP (IGONE)
01081  A7E4  20 73 00    NGONE  JSR CHRGET
01082  A7E7  20 ED A7    NGONE1 JSR GONE3
01083  A7EA  4C AE A7           JMP NEWSTT
01084  A7ED  F0 3C       GONE3  BEQ ISCRTS
01085  A7EF  E9 80       GONE2  SBC #ENDTK
01086  A7F1  90 11              BCC GLET
01087  A7F3  C9 23              CMP #SCRATK-ENDTK+1
01088  A7F5  B0 17              BCS SNERRX
01089  A7F7  0A                 ASL A
01090  A7F8  A8                 TAY
01091  A7F9  B9 0D A0           LDA STMDSP+1,Y
01092  A7FC  48                 PHA
01093  A7FD  B9 0C A0           LDA STMDSP,Y
01094  A800  48                 PHA
01095  A801  4C 73 00           JMP CHRGET
01096  A804  4C A5 A9    GLET   JMP LET
01097  A807  C9 3A       MORSTS CMP #':
01098  A809  F0 D6              BEQ GONE
01099  A80B  4C 08 AF    SNERR1 JMP SNERR
01100  A80E  C9 4B       SNERRX CMP #GOTK-ENDTK
01101  A810  D0 F9              BNE SNERR1
01102  A812  20 73 00           JSR CHRGET
01103  A815  A9 A4              LDA #TOTK
01104  A817  20 FF AE           JSR SYNCHR
01105  A81A  4C A0 A8           JMP GOTO
01106  A81D  38          RESTOR SEC
01107  A81E  A5 2B              LDA TXTTAB






CODE4......PAGE 0027

LINE# LOC   CODE        LINE


01108  A820  E9 01              SBC #1
01109  A822  A4 2C              LDY TXTTAB+1
01110  A824  B0 01              BCS RESFIN
01111  A826  88                 DEY
01112  A827  85 41       RESFIN STA DATPTR
01113  A829  84 42              STY DATPTR+1
01114  A82B  60          ISCRTS RTS
01115  A82C  20 E1 FF    ISCNTC JSR $FFE1
01116  A82F  B0 01       STOP   BCS STOPC
01117  A831  18          END    CLC
01118  A832  D0 3C       STOPC  BNE CONTRT
01119  A834  A5 7A              LDA TXTPTR
01120  A836  A4 7B              LDY TXTPTR+1
01121  A838  A6 3A              LDX CURLIN+1
01122  A83A  E8                 INX
01123  A83B  F0 0C              BEQ DIRIS
01124  A83D  85 3D              STA OLDTXT
01125  A83F  84 3E              STY OLDTXT+1
01126  A841  A5 39       STPEND LDA CURLIN
01127  A843  A4 3A              LDY CURLIN+1
01128  A845  85 3B              STA OLDLIN
01129  A847  84 3C              STY OLDLIN+1
01130  A849  68          DIRIS  PLA
01131  A84A  68                 PLA
01132  A84B  A9 81       ENDCON LDA #<BRKTXT
01133  A84D  A0 A3              LDY #>BRKTXT
01134  A84F  90 03              BCC GORDY
01135  A851  4C 69 A4           JMP ERRFIN
01136  A854  4C 86 E3    GORDY  JMP READY
01137  A857  D0 17       CONT   BNE CONTRT
01138  A859  A2 1A              LDX #ERRCN
01139  A85B  A4 3E              LDY OLDTXT+1
01140  A85D  D0 03              BNE *+5
01141  A85F  4C 37 A4           JMP ERROR
01142  A862  A5 3D              LDA OLDTXT
01143  A864  85 7A              STA TXTPTR
01144  A866  84 7B              STY TXTPTR+1
01145  A868  A5 3B              LDA OLDLIN
01146  A86A  A4 3C              LDY OLDLIN+1
01147  A86C  85 39              STA CURLIN
01148  A86E  84 3A              STY CURLIN+1
01149  A870  60          CONTRT RTS
01150  A871  08          RUN    PHP
01151  A872  A9 00              LDA #0          ;NO KERNAL MESSAGES
01152  A874  20 90 FF           JSR SETMSG
01153  A877  28                 PLP
01154  A878  D0 03              BNE *+5
01155  A87A  4C 59 A6           JMP RUNC
01156  A87D  20 60 A6           JSR CLEARC
01157  A880  4C 97 A8           JMP RUNC2
01158  A883  A9 03       GOSUB  LDA #3
01159  A885  20 FB A3           JSR GETSTK
01160  A888  A5 7B              LDA TXTPTR+1
01161  A88A  48                 PHA
01162  A88B  A5 7A              LDA TXTPTR






CODE4......PAGE 0028

LINE# LOC   CODE        LINE


01163  A88D  48                 PHA
01164  A88E  A5 3A              LDA CURLIN+1
01165  A890  48                 PHA
01166  A891  A5 39              LDA CURLIN
01167  A893  48                 PHA
01168  A894  A9 8D              LDA #GOSUTK
01169  A896  48                 PHA
01170  A897  20 79 00    RUNC2  JSR CHRGOT
01171  A89A  20 A0 A8           JSR GOTO
01172  A89D  4C AE A7           JMP NEWSTT
01173  A8A0  20 6B A9    GOTO   JSR LINGET
01174  A8A3  20 09 A9           JSR REMN
01175  A8A6  38                 SEC
01176  A8A7  A5 39              LDA CURLIN
01177  A8A9  E5 14              SBC LINNUM
01178  A8AB  A5 3A              LDA CURLIN+1
01179  A8AD  E5 15              SBC LINNUM+1
01180  A8AF  B0 0B              BCS LUK4IT
01181  A8B1  98                 TYA
01182  A8B2  38                 SEC
01183  A8B3  65 7A              ADC TXTPTR
01184  A8B5  A6 7B              LDX TXTPTR+1
01185  A8B7  90 07              BCC LUKALL
01186  A8B9  E8                 INX
01187  A8BA  B0 04              BCS LUKALL
01188  A8BC  A5 2B       LUK4IT LDA TXTTAB
01189  A8BE  A6 2C              LDX TXTTAB+1
01190  A8C0  20 17 A6    LUKALL JSR FNDLNC
01191  A8C3  90 1E              BCC USERR
01192  A8C5  A5 5F              LDA LOWTR
01193  A8C7  E9 01              SBC #1
01194  A8C9              .END
01195  A8C9              .LIB   CODE5




























CODE5......PAGE 0029

LINE# LOC   CODE        LINE


01197  A8C9  85 7A              STA TXTPTR
01198  A8CB  A5 60              LDA LOWTR+1
01199  A8CD  E9 00              SBC #0
01200  A8CF  85 7B              STA TXTPTR+1
01201  A8D1  60          GORTS  RTS
01202  A8D2  D0 FD       RETURN BNE GORTS
01203  A8D4  A9 FF              LDA #255
01204  A8D6  85 4A              STA FORPNT+1
01205  A8D8  20 8A A3           JSR FNDFOR
01206  A8DB  9A                 TXS
01207  A8DC  C9 8D              CMP #GOSUTK
01208  A8DE  F0 0B              BEQ RETU1
01209  A8E0  A2 0C              LDX #ERRRG
01210  A8E2  2C                 .BYT $2C
01211  A8E3  A2 11       USERR  LDX #ERRUS
01212  A8E5  4C 37 A4           JMP ERROR
01213  A8E8  4C 08 AF    SNERR2 JMP SNERR
01214  A8EB  68          RETU1  PLA
01215  A8EC  68                 PLA
01216  A8ED  85 39              STA CURLIN
01217  A8EF  68                 PLA
01218  A8F0  85 3A              STA CURLIN+1
01219  A8F2  68                 PLA
01220  A8F3  85 7A              STA TXTPTR
01221  A8F5  68                 PLA
01222  A8F6  85 7B              STA TXTPTR+1
01223  A8F8  20 06 A9    DATA   JSR DATAN
01224  A8FB  98          ADDON  TYA
01225  A8FC  18                 CLC
01226  A8FD  65 7A              ADC TXTPTR
01227  A8FF  85 7A              STA TXTPTR
01228  A901  90 02              BCC REMRTS
01229  A903  E6 7B              INC TXTPTR+1
01230  A905  60          REMRTS RTS
01231  A906  A2 3A       DATAN  LDX #':
01232  A908  2C                 .BYT $2C
01233  A909  A2 00       REMN   LDX #0
01234  A90B  86 07              STX CHARAC
01235  A90D  A0 00              LDY #0
01236  A90F  84 08              STY ENDCHR
01237  A911  A5 08       EXCHQT LDA ENDCHR
01238  A913  A6 07              LDX CHARAC
01239  A915  85 07              STA CHARAC
01240  A917  86 08              STX ENDCHR
01241  A919  B1 7A       REMER  LDA (TXTPTR)Y
01242  A91B  F0 E8              BEQ REMRTS
01243  A91D  C5 08              CMP ENDCHR
01244  A91F  F0 E4              BEQ REMRTS
01245  A921  C8                 INY
01246  A922  C9 22              CMP #34
01247  A924  D0 F3              BNE REMER
01248  A926  F0 E9              BEQ EXCHQT
01249  A928  20 9E AD    IF     JSR FRMEVL
01250  A92B  20 79 00           JSR CHRGOT
01251  A92E  C9 89              CMP #GOTOTK






CODE5......PAGE 0030

LINE# LOC   CODE        LINE


01252  A930  F0 05              BEQ OKGOTO
01253  A932  A9 A7              LDA #THENTK
01254  A934  20 FF AE           JSR SYNCHR
01255  A937  A5 61       OKGOTO LDA FACEXP
01256  A939  D0 05              BNE DOCOND
01257  A93B  20 09 A9    REM    JSR REMN
01258  A93E  F0 BB              BEQ ADDON
01259  A940  20 79 00    DOCOND JSR CHRGOT
01260  A943  B0 03              BCS DOCO
01261  A945  4C A0 A8           JMP GOTO
01262  A948  4C ED A7    DOCO   JMP GONE3
01263  A94B  20 9E B7    ONGOTO JSR GETBYT
01264  A94E  48                 PHA
01265  A94F  C9 8D              CMP #GOSUTK
01266  A951  F0 04              BEQ ONGLOP
01267  A953  C9 89       SNERR3 CMP #GOTOTK
01268  A955  D0 91              BNE SNERR2
01269  A957  C6 65       ONGLOP DEC FACLO
01270  A959  D0 04              BNE ONGLP1
01271  A95B  68                 PLA
01272  A95C  4C EF A7           JMP GONE2
01273  A95F  20 73 00    ONGLP1 JSR CHRGET
01274  A962  20 6B A9           JSR LINGET
01275  A965  C9 2C              CMP #44
01276  A967  F0 EE              BEQ ONGLOP
01277  A969  68                 PLA
01278  A96A  60          ONGRTS RTS
01279  A96B  A2 00       LINGET LDX #0
01280  A96D  86 14              STX LINNUM
01281  A96F  86 15              STX LINNUM+1
01282  A971  B0 F7       MORLIN BCS ONGRTS
01283  A973  E9 2F              SBC #$2F
01284  A975  85 07              STA CHARAC
01285  A977  A5 15              LDA LINNUM+1
01286  A979  85 22              STA INDEX
01287  A97B  C9 19              CMP #25
01288  A97D  B0 D4              BCS SNERR3
01289  A97F  A5 14              LDA LINNUM
01290  A981  0A                 ASL A
01291  A982  26 22              ROL INDEX
01292  A984  0A                 ASL A
01293  A985  26 22              ROL INDEX
01294  A987  65 14              ADC LINNUM
01295  A989  85 14              STA LINNUM
01296  A98B  A5 22              LDA INDEX
01297  A98D  65 15              ADC LINNUM+1
01298  A98F  85 15              STA LINNUM+1
01299  A991  06 14              ASL LINNUM
01300  A993  26 15              ROL LINNUM+1
01301  A995  A5 14              LDA LINNUM
01302  A997  65 07              ADC CHARAC
01303  A999  85 14              STA LINNUM
01304  A99B  90 02              BCC NXTLGC
01305  A99D  E6 15              INC LINNUM+1
01306  A99F  20 73 00    NXTLGC JSR CHRGET






CODE5......PAGE 0031

LINE# LOC   CODE        LINE


01307  A9A2  4C 71 A9           JMP MORLIN
01308  A9A5  20 8B B0    LET    JSR PTRGET
01309  A9A8  85 49              STA FORPNT
01310  A9AA  84 4A              STY FORPNT+1
01311  A9AC  A9 B2              LDA #$B2
01312  A9AE  20 FF AE           JSR SYNCHR
01313  A9B1  A5 0E              LDA INTFLG
01314  A9B3  48                 PHA
01315  A9B4  A5 0D              LDA VALTYP
01316  A9B6  48                 PHA
01317  A9B7  20 9E AD           JSR FRMEVL
01318  A9BA  68                 PLA
01319  A9BB  2A                 ROL A
01320  A9BC  20 90 AD           JSR CHKVAL
01321  A9BF  D0 18              BNE COPSTR
01322  A9C1  68                 PLA
01323  A9C2  10 12       QINTGR BPL COPFLT
01324  A9C4  20 1B BC           JSR ROUND
01325  A9C7  20 BF B1           JSR AYINT
01326  A9CA  A0 00              LDY #0
01327  A9CC  A5 64              LDA FACMO
01328  A9CE  91 49              STA (FORPNT)Y
01329  A9D0  C8                 INY
01330  A9D1  A5 65              LDA FACLO
01331  A9D3  91 49              STA (FORPNT)Y
01332  A9D5  60                 RTS
01333  A9D6  4C D0 BB    COPFLT JMP MOVVF
01334  A9D9  68          COPSTR PLA
01335  A9DA  A4 4A       INPCOM LDY FORPNT+1
01336  A9DC  C0 BF              CPY #>ZERO
01337  A9DE  D0 4C              BNE GETSPT
01338  A9E0  20 A6 B6           JSR FREFAC
01339  A9E3  C9 06              CMP #6
01340  A9E5  D0 3D              BNE FCERR2
01341  A9E7  A0 00              LDY #0
01342  A9E9  84 61              STY FACEXP
01343  A9EB  84 66              STY FACSGN
01344  A9ED              .END
01345  A9ED              .LIB   CODE6






















CODE6......PAGE 0032

LINE# LOC   CODE        LINE


01347  A9ED  84 71       TIMELP STY FBUFPT
01348  A9EF  20 1D AA           JSR TIMNUM
01349  A9F2  20 E2 BA           JSR MUL10
01350  A9F5  E6 71              INC FBUFPT
01351  A9F7  A4 71              LDY FBUFPT
01352  A9F9  20 1D AA           JSR TIMNUM
01353  A9FC  20 0C BC           JSR MOVAF
01354  A9FF  AA                 TAX
01355  AA00  F0 05              BEQ NOML6
01356  AA02  E8                 INX
01357  AA03  8A                 TXA
01358  AA04  20 ED BA           JSR FINML6
01359  AA07  A4 71       NOML6  LDY FBUFPT
01360  AA09  C8                 INY
01361  AA0A  C0 06              CPY #6
01362  AA0C  D0 DF              BNE TIMELP
01363  AA0E  20 E2 BA           JSR MUL10
01364  AA11  20 9B BC           JSR QINT
01365  AA14  A6 64              LDX FACMO
01366  AA16  A4 63              LDY FACMOH
01367  AA18  A5 65              LDA FACLO
01368  AA1A  4C DB FF           JMP SETTIM
01369  AA1D  B1 22       TIMNUM LDA (INDEX)Y
01370  AA1F  20 80 00           JSR QNUM
01371  AA22  90 03              BCC GOTNUM
01372  AA24  4C 48 B2    FCERR2 JMP FCERR
01373  AA27  E9 2F       GOTNUM SBC #$2F
01374  AA29  4C 7E BD           JMP FINLOG
01375  AA2C  A0 02       GETSPT LDY #2
01376  AA2E  B1 64              LDA (FACMO)Y
01377  AA30  C5 34              CMP FRETOP+1
01378  AA32  90 17              BCC DNTCPY
01379  AA34  D0 07              BNE QVARIA
01380  AA36  88                 DEY
01381  AA37  B1 64              LDA (FACMO)Y
01382  AA39  C5 33              CMP FRETOP
01383  AA3B  90 0E              BCC DNTCPY
01384  AA3D  A4 65       QVARIA LDY FACLO
01385  AA3F  C4 2E              CPY VARTAB+1
01386  AA41  90 08              BCC DNTCPY
01387  AA43  D0 0D              BNE COPY
01388  AA45  A5 64              LDA FACMO
01389  AA47  C5 2D              CMP VARTAB
01390  AA49  B0 07              BCS COPY
01391  AA4B  A5 64       DNTCPY LDA FACMO
01392  AA4D  A4 65              LDY FACMO+1
01393  AA4F  4C 68 AA           JMP COPYC
01394  AA52  A0 00       COPY   LDY #0
01395  AA54  B1 64              LDA (FACMO)Y
01396  AA56  20 75 B4           JSR STRINI
01397  AA59  A5 50              LDA DSCPNT
01398  AA5B  A4 51              LDY DSCPNT+1
01399  AA5D  85 6F              STA STRNG1
01400  AA5F  84 70              STY STRNG1+1
01401  AA61  20 7A B6           JSR MOVINS






CODE6......PAGE 0033

LINE# LOC   CODE        LINE


01402  AA64  A9 61              LDA #<DSCTMP
01403  AA66  A0 00              LDY #>DSCTMP
01404  AA68  85 50       COPYC  STA DSCPNT
01405  AA6A  84 51              STY DSCPNT+1
01406  AA6C  20 DB B6           JSR FRETMS
01407  AA6F  A0 00              LDY #0
01408  AA71  B1 50              LDA (DSCPNT)Y
01409  AA73  91 49              STA (FORPNT)Y
01410  AA75  C8                 INY
01411  AA76  B1 50              LDA (DSCPNT)Y
01412  AA78  91 49              STA (FORPNT)Y
01413  AA7A  C8                 INY
01414  AA7B  B1 50              LDA (DSCPNT)Y
01415  AA7D  91 49              STA (FORPNT)Y
01416  AA7F  60                 RTS
01417  AA80  20 86 AA    PRINTN JSR CMD
01418  AA83  4C B5 AB           JMP IODONE
01419  AA86  20 9E B7    CMD    JSR GETBYT
01420  AA89  F0 05              BEQ SAVEIT
01421  AA8B  A9 2C              LDA #44
01422  AA8D  20 FF AE           JSR SYNCHR
01423  AA90  08          SAVEIT PHP
01424  AA91  86 13              STX CHANNL
01425  AA93  20 18 E1           JSR COOUT
01426  AA96  28                 PLP
01427  AA97  4C A0 AA           JMP PRINT
01428  AA9A  20 21 AB    STRDON JSR STRPRT
01429  AA9D  20 79 00    NEWCHR JSR CHRGOT
01430  AAA0  F0 35       PRINT  BEQ CRDO
01431  AAA2  F0 43       PRINTC BEQ PRTRTS
01432  AAA4  C9 A3              CMP #TABTK
01433  AAA6  F0 50              BEQ TABER
01434  AAA8  C9 A6              CMP #SPCTK
01435  AAAA  18                 CLC
01436  AAAB  F0 4B              BEQ TABER
01437  AAAD  C9 2C              CMP #44
01438  AAAF  F0 37              BEQ COMPRT
01439  AAB1  C9 3B              CMP #59
01440  AAB3  F0 5E              BEQ NOTABR
01441  AAB5  20 9E AD           JSR FRMEVL
01442  AAB8  24 0D              BIT VALTYP
01443  AABA  30 DE              BMI STRDON
01444  AABC  20 DD BD           JSR FOUT
01445  AABF  20 87 B4           JSR STRLIT
01446  AAC2  20 21 AB           JSR STRPRT
01447  AAC5  20 3B AB           JSR OUTSPC
01448  AAC8  D0 D3              BNE NEWCHR
01449  AACA  A9 00       FININL LDA #0
01450  AACC  9D 00 02           STA BUF,X
01451  AACF              ZZ5=BUF-1
01452  AACF  A2 FF              LDX #<ZZ5
01453  AAD1  A0 01              LDY #>ZZ5
01454  AAD3  A5 13              LDA CHANNL
01455  AAD5  D0 10              BNE PRTRTS
01456  AAD7  A9 0D       CRDO   LDA #13






CODE6......PAGE 0034

LINE# LOC   CODE        LINE


01457  AAD9  20 47 AB           JSR OUTDO
01458  AADC  24 13              BIT CHANNL
01459  AADE  10 05              BPL CRFIN
01460  AAE0              ;
01461  AAE0  A9 0A              LDA #10
01462  AAE2  20 47 AB           JSR OUTDO
01463  AAE5  49 FF       CRFIN  EOR #255
01464  AAE7  60          PRTRTS RTS
01465  AAE8  38          COMPRT SEC
01466  AAE9  20 F0 FF           JSR PLOT        ;GET TAB POSITION IN X
01467  AAEC  98                 TYA
01468  AAED              NCMPOS =@36
01469  AAED  38                 SEC
01470  AAEE  E9 0A       MORCO1 SBC #CLMWID
01471  AAF0  B0 FC              BCS MORCO1
01472  AAF2  49 FF              EOR #255
01473  AAF4  69 01              ADC #1
01474  AAF6  D0 16              BNE ASPAC
01475  AAF8  08          TABER  PHP
01476  AAF9  38                 SEC
01477  AAFA  20 F0 FF           JSR PLOT        ;READ TAB POSITION
01478  AAFD  84 09              STY TRMPOS
01479  AAFF  20 9B B7           JSR GTBYTC
01480  AB02  C9 29              CMP #41
01481  AB04  D0 59              BNE SNERR4
01482  AB06  28                 PLP
01483  AB07  90 06              BCC XSPAC
01484  AB09  8A                 TXA
01485  AB0A  E5 09              SBC TRMPOS
01486  AB0C  90 05              BCC NOTABR
01487  AB0E  AA          ASPAC  TAX
01488  AB0F  E8          XSPAC  INX
01489  AB10  CA          XSPAC2 DEX
01490  AB11  D0 06              BNE XSPAC1
01491  AB13  20 73 00    NOTABR JSR CHRGET
01492  AB16  4C A2 AA           JMP PRINTC
01493  AB19              .END
01494  AB19              .LIB   CODE7























CODE7......PAGE 0035

LINE# LOC   CODE        LINE


01496  AB19  20 3B AB    XSPAC1 JSR OUTSPC
01497  AB1C  D0 F2              BNE XSPAC2
01498  AB1E  20 87 B4    STROUT JSR STRLIT
01499  AB21  20 A6 B6    STRPRT JSR FREFAC
01500  AB24  AA                 TAX
01501  AB25  A0 00              LDY #0
01502  AB27  E8                 INX
01503  AB28  CA          STRPR2 DEX
01504  AB29  F0 BC              BEQ PRTRTS
01505  AB2B  B1 22              LDA (INDEX)Y
01506  AB2D  20 47 AB           JSR OUTDO
01507  AB30  C8                 INY
01508  AB31  C9 0D              CMP #13
01509  AB33  D0 F3              BNE STRPR2
01510  AB35  20 E5 AA           JSR CRFIN
01511  AB38  4C 28 AB           JMP STRPR2
01512  AB3B              OUTSPC
01513  AB3B  A5 13              LDA CHANNL
01514  AB3D  F0 03              BEQ CRTSKP
01515  AB3F  A9 20              LDA #' 
01516  AB41  2C                 .BYT $2C
01517  AB42  A9 1D       CRTSKP LDA #29
01518  AB44  2C                 .BYT $2C
01519  AB45  A9 3F       OUTQST LDA #'?
01520  AB47  20 0C E1    OUTDO  JSR OUTCH
01521  AB4A  29 FF       OUTRTS AND #255
01522  AB4C  60                 RTS
01523  AB4D  A5 11       TRMNOK LDA INPFLG
01524  AB4F  F0 11              BEQ TRMNO1
01525  AB51  30 04              BMI GETDTL
01526  AB53  A0 FF              LDY #255
01527  AB55  D0 04              BNE STCURL
01528  AB57  A5 3F       GETDTL LDA DATLIN
01529  AB59  A4 40              LDY DATLIN+1
01530  AB5B  85 39       STCURL STA CURLIN
01531  AB5D  84 3A              STY CURLIN+1
01532  AB5F  4C 08 AF    SNERR4 JMP SNERR
01533  AB62  A5 13       TRMNO1 LDA CHANNL
01534  AB64  F0 05              BEQ DOAGIN
01535  AB66  A2 18              LDX #ERRBD
01536  AB68  4C 37 A4           JMP ERROR
01537  AB6B  A9 0C       DOAGIN LDA #<TRYAGN
01538  AB6D  A0 AD              LDY #>TRYAGN
01539  AB6F  20 1E AB           JSR STROUT
01540  AB72  A5 3D              LDA OLDTXT
01541  AB74  A4 3E              LDY OLDTXT+1
01542  AB76  85 7A              STA TXTPTR
01543  AB78  84 7B              STY TXTPTR+1
01544  AB7A  60                 RTS
01545  AB7B  20 A6 B3    GET    JSR ERRDIR
01546  AB7E  C9 23              CMP #'#
01547  AB80  D0 10              BNE GETTTY
01548  AB82  20 73 00           JSR CHRGET
01549  AB85  20 9E B7           JSR GETBYT
01550  AB88  A9 2C              LDA #44






CODE7......PAGE 0036

LINE# LOC   CODE        LINE


01551  AB8A  20 FF AE           JSR SYNCHR
01552  AB8D  86 13              STX CHANNL
01553  AB8F  20 1E E1           JSR COIN
01554  AB92              ZZ2=BUF+1
01555  AB92  A2 01       GETTTY LDX #<ZZ2
01556  AB94              ZZ3=BUF+2
01557  AB94  A0 02              LDY #>ZZ3
01558  AB96  A9 00              LDA #0
01559  AB98  8D 01 02           STA BUF+1
01560  AB9B  A9 40              LDA #64
01561  AB9D  20 0F AC           JSR INPCO1
01562  ABA0  A6 13              LDX CHANNL
01563  ABA2  D0 13              BNE IORELE
01564  ABA4  60                 RTS
01565  ABA5  20 9E B7    INPUTN JSR GETBYT
01566  ABA8  A9 2C              LDA #44
01567  ABAA  20 FF AE           JSR SYNCHR
01568  ABAD  86 13              STX CHANNL
01569  ABAF  20 1E E1           JSR COIN
01570  ABB2  20 CE AB           JSR NOTQTI
01571  ABB5  A5 13       IODONE LDA CHANNL
01572  ABB7  20 CC FF    IORELE JSR CLSCHN
01573  ABBA  A2 00              LDX #0
01574  ABBC  86 13              STX CHANNL
01575  ABBE  60                 RTS
01576  ABBF  C9 22       INPUT  CMP #34
01577  ABC1  D0 0B              BNE NOTQTI
01578  ABC3  20 BD AE           JSR STRTXT
01579  ABC6  A9 3B              LDA #59
01580  ABC8  20 FF AE           JSR SYNCHR
01581  ABCB  20 21 AB           JSR STRPRT
01582  ABCE  20 A6 B3    NOTQTI JSR ERRDIR
01583  ABD1  A9 2C              LDA #44
01584  ABD3  8D FF 01           STA BUF-1
01585  ABD6  20 F9 AB    GETAGN JSR QINLIN
01586  ABD9  A5 13              LDA CHANNL
01587  ABDB  F0 0D              BEQ BUFFUL
01588  ABDD  20 B7 FF           JSR READST
01589  ABE0  29 02              AND #2
01590  ABE2  F0 06              BEQ BUFFUL
01591  ABE4  20 B5 AB           JSR IODONE
01592  ABE7  4C F8 A8           JMP DATA
01593  ABEA  AD 00 02    BUFFUL LDA BUF
01594  ABED  D0 1E              BNE INPCON
01595  ABEF  A5 13              LDA CHANNL
01596  ABF1  D0 E3              BNE GETAGN
01597  ABF3  20 06 A9           JSR DATAN
01598  ABF6  4C FB A8           JMP ADDON
01599  ABF9  A5 13       QINLIN LDA CHANNL
01600  ABFB  D0 06              BNE GINLIN
01601  ABFD  20 45 AB           JSR OUTQST
01602  AC00  20 3B AB           JSR OUTSPC
01603  AC03  4C 60 A5    GINLIN JMP INLIN
01604  AC06  A6 41       READ   LDX DATPTR
01605  AC08  A4 42              LDY DATPTR+1






CODE7......PAGE 0037

LINE# LOC   CODE        LINE


01606  AC0A  A9                 .BYT $A9
01607  AC0B  98                 TYA
01608  AC0C  2C                 .BYT $2C
01609  AC0D  A9 00       INPCON LDA #0
01610  AC0F  85 11       INPCO1 STA INPFLG
01611  AC11  86 43              STX INPPTR
01612  AC13  84 44              STY INPPTR+1
01613  AC15  20 8B B0    INLOOP JSR PTRGET
01614  AC18  85 49              STA FORPNT
01615  AC1A  84 4A              STY FORPNT+1
01616  AC1C  A5 7A              LDA TXTPTR
01617  AC1E  A4 7B              LDY TXTPTR+1
01618  AC20  85 4B              STA VARTXT
01619  AC22  84 4C              STY VARTXT+1
01620  AC24  A6 43              LDX INPPTR
01621  AC26  A4 44              LDY INPPTR+1
01622  AC28  86 7A              STX TXTPTR
01623  AC2A  84 7B              STY TXTPTR+1
01624  AC2C  20 79 00           JSR CHRGOT
01625  AC2F  D0 20              BNE DATBK1
01626  AC31  24 11              BIT INPFLG
01627  AC33  50 0C              BVC QDATA
01628  AC35  20 24 E1           JSR CGETL
01629  AC38  8D 00 02           STA BUF
01630  AC3B              ZZ4=BUF-1
01631  AC3B  A2 FF              LDX #<ZZ4
01632  AC3D  A0 01              LDY #>ZZ4
01633  AC3F  D0 0C              BNE DATBK
01634  AC41  30 75       QDATA  BMI DATLOP
01635  AC43  A5 13              LDA CHANNL
01636  AC45  D0 03              BNE GETNTH
01637  AC47  20 45 AB           JSR OUTQST
01638  AC4A  20 F9 AB    GETNTH JSR QINLIN
01639  AC4D  86 7A       DATBK  STX TXTPTR
01640  AC4F  84 7B              STY TXTPTR+1
01641  AC51              .END
01642  AC51              .LIB   CODE8
























CODE8......PAGE 0038

LINE# LOC   CODE        LINE


01644  AC51  20 73 00    DATBK1 JSR CHRGET
01645  AC54  24 0D              BIT VALTYP
01646  AC56  10 31              BPL NUMINS
01647  AC58  24 11              BIT INPFLG
01648  AC5A  50 09              BVC SETQUT
01649  AC5C  E8                 INX
01650  AC5D  86 7A              STX TXTPTR
01651  AC5F  A9 00              LDA #0
01652  AC61  85 07              STA CHARAC
01653  AC63  F0 0C              BEQ RESETC
01654  AC65  85 07       SETQUT STA CHARAC
01655  AC67  C9 22              CMP #34
01656  AC69  F0 07              BEQ NOWGET
01657  AC6B  A9 3A              LDA #':
01658  AC6D  85 07              STA CHARAC
01659  AC6F  A9 2C              LDA #44
01660  AC71  18          RESETC CLC
01661  AC72  85 08       NOWGET STA ENDCHR
01662  AC74  A5 7A              LDA TXTPTR
01663  AC76  A4 7B              LDY TXTPTR+1
01664  AC78  69 00              ADC #0
01665  AC7A  90 01              BCC NOWGE1
01666  AC7C  C8                 INY
01667  AC7D  20 8D B4    NOWGE1 JSR STRLT2
01668  AC80  20 E2 B7           JSR ST2TXT
01669  AC83  20 DA A9           JSR INPCOM
01670  AC86  4C 91 AC           JMP STRDN2
01671  AC89  20 F3 BC    NUMINS JSR FIN
01672  AC8C  A5 0E              LDA INTFLG
01673  AC8E  20 C2 A9           JSR QINTGR
01674  AC91  20 79 00    STRDN2 JSR CHRGOT
01675  AC94  F0 07              BEQ TRMOK
01676  AC96  C9 2C              CMP #44
01677  AC98  F0 03              BEQ *+5
01678  AC9A  4C 4D AB           JMP TRMNOK
01679  AC9D  A5 7A       TRMOK  LDA TXTPTR
01680  AC9F  A4 7B              LDY TXTPTR+1
01681  ACA1  85 43              STA INPPTR
01682  ACA3  84 44              STY INPPTR+1
01683  ACA5  A5 4B              LDA VARTXT
01684  ACA7  A4 4C              LDY VARTXT+1
01685  ACA9  85 7A              STA TXTPTR
01686  ACAB  84 7B              STY TXTPTR+1
01687  ACAD  20 79 00           JSR CHRGOT
01688  ACB0  F0 2D              BEQ VAREND
01689  ACB2  20 FD AE           JSR CHKCOM
01690  ACB5  4C 15 AC           JMP INLOOP
01691  ACB8  20 06 A9    DATLOP JSR DATAN
01692  ACBB  C8                 INY
01693  ACBC  AA                 TAX
01694  ACBD  D0 12              BNE NOWLIN
01695  ACBF  A2 0D              LDX #ERROD
01696  ACC1  C8                 INY
01697  ACC2  B1 7A              LDA (TXTPTR)Y
01698  ACC4  F0 6C              BEQ ERRGO5






CODE8......PAGE 0039

LINE# LOC   CODE        LINE


01699  ACC6  C8                 INY
01700  ACC7  B1 7A              LDA (TXTPTR)Y
01701  ACC9  85 3F              STA DATLIN
01702  ACCB  C8                 INY
01703  ACCC  B1 7A              LDA (TXTPTR)Y
01704  ACCE  C8                 INY
01705  ACCF  85 40              STA DATLIN+1
01706  ACD1  20 FB A8    NOWLIN JSR ADDON       ;TXTPTR+.Y
01707  ACD4  20 79 00           JSR CHRGOT      ;SPAN BLANKS
01708  ACD7  AA                 TAX             ;USED LATER
01709  ACD8  E0 83              CPX #DATATK
01710  ACDA  D0 DC              BNE DATLOP
01711  ACDC  4C 51 AC           JMP DATBK1
01712  ACDF  A5 43       VAREND LDA INPPTR
01713  ACE1  A4 44              LDY INPPTR+1
01714  ACE3  A6 11              LDX INPFLG
01715  ACE5  10 03              BPL VARY0
01716  ACE7  4C 27 A8           JMP RESFIN
01717  ACEA  A0 00       VARY0  LDY #0
01718  ACEC  B1 43              LDA (INPPTR)Y
01719  ACEE  F0 0B              BEQ INPRTS
01720  ACF0  A5 13              LDA CHANNL
01721  ACF2  D0 07              BNE INPRTS
01722  ACF4  A9 FC              LDA #<EXIGNT
01723  ACF6  A0 AC              LDY #>EXIGNT
01724  ACF8  4C 1E AB           JMP STROUT
01725  ACFB  60          INPRTS RTS
01726  ACFC  3F 45       EXIGNT .BYT '?EXTRA IGNORED'
01727  AD0A  0D                 .BYT $D
01728  AD0B  00                 .BYT 0
01729  AD0C  3F 52       TRYAGN .BYT '?REDO FROM START'
01730  AD1C  0D                 .BYT $D
01731  AD1D  00                 .BYT 0
01732  AD1E  D0 04       NEXT   BNE GETFOR
01733  AD20  A0 00              LDY #0
01734  AD22  F0 03              BEQ STXFOR
01735  AD24  20 8B B0    GETFOR JSR PTRGET
01736  AD27  85 49       STXFOR STA FORPNT
01737  AD29  84 4A              STY FORPNT+1
01738  AD2B  20 8A A3           JSR FNDFOR
01739  AD2E  F0 05              BEQ HAVFOR
01740  AD30  A2 0A              LDX #ERRNF
01741  AD32  4C 37 A4    ERRGO5 JMP ERROR       ;CHANGE
01742  AD35  9A          HAVFOR TXS
01743  AD36  8A                 TXA
01744  AD37  18                 CLC
01745  AD38  69 04              ADC #4
01746  AD3A  48                 PHA
01747  AD3B  69 06              ADC #5+ADDPRC
01748  AD3D  85 24              STA INDEX2
01749  AD3F  68                 PLA
01750  AD40  A0 01              LDY #1
01751  AD42  20 A2 BB           JSR MOVFM
01752  AD45  BA                 TSX
01753  AD46  BD 09 01           LDA ADDPRC+264,X






CODE8......PAGE 0040

LINE# LOC   CODE        LINE


01754  AD49  85 66              STA FACSGN
01755  AD4B  A5 49              LDA FORPNT
01756  AD4D  A4 4A              LDY FORPNT+1
01757  AD4F  20 67 B8           JSR FADD
01758  AD52  20 D0 BB           JSR MOVVF
01759  AD55  A0 01              LDY #1
01760  AD57  20 5D BC           JSR FCOMPN
01761  AD5A  BA                 TSX
01762  AD5B  38                 SEC
01763  AD5C  FD 09 01           SBC ADDPRC+264,X
01764  AD5F  F0 17              BEQ LOOPDN
01765  AD61  BD 0F 01           LDA 269+ADDPRC+ADDPRC,X
01766  AD64  85 39              STA CURLIN
01767  AD66  BD 10 01           LDA 270+ADDPRC+ADDPRC,X
01768  AD69  85 3A              STA CURLIN+1
01769  AD6B  BD 12 01           LDA 272+ADDPRC+ADDPRC,X
01770  AD6E  85 7A              STA TXTPTR
01771  AD70  BD 11 01           LDA 271+ADDPRC+ADDPRC,X
01772  AD73  85 7B              STA TXTPTR+1
01773  AD75  4C AE A7    NEWSGO JMP NEWSTT
01774  AD78  8A          LOOPDN TXA
01775  AD79  69 11              ADC #15+ADDPRC+ADDPRC
01776  AD7B  AA                 TAX
01777  AD7C  9A                 TXS 
01778  AD7D  20 79 00           JSR CHRGOT
01779  AD80  C9 2C              CMP #44
01780  AD82  D0 F1              BNE NEWSGO
01781  AD84  20 73 00           JSR CHRGET
01782  AD87  20 24 AD           JSR GETFOR
01783  AD8A  20 9E AD    FRMNUM JSR FRMEVL
01784  AD8D  18          CHKNUM CLC
01785  AD8E  24                 .BYT $24
01786  AD8F  38          CHKSTR SEC
01787  AD90  24 0D       CHKVAL BIT VALTYP
01788  AD92              .END
01789  AD92              .LIB   CODE9

























CODE9......PAGE 0041

LINE# LOC   CODE        LINE


01791  AD92  30 03              BMI DOCSTR
01792  AD94  B0 03              BCS CHKERR
01793  AD96  60          CHKOK  RTS
01794  AD97  B0 FD       DOCSTR BCS CHKOK
01795  AD99  A2 16       CHKERR LDX #ERRTM
01796  AD9B  4C 37 A4    ERRGO4 JMP ERROR
01797  AD9E  A6 7A       FRMEVL LDX TXTPTR
01798  ADA0  D0 02              BNE FRMEV1
01799  ADA2  C6 7B              DEC TXTPTR+1
01800  ADA4  C6 7A       FRMEV1 DEC TXTPTR
01801  ADA6  A2 00              LDX #0
01802  ADA8  24                 .BYT $24
01803  ADA9  48          LPOPER PHA
01804  ADAA  8A                 TXA
01805  ADAB  48                 PHA
01806  ADAC  A9 01              LDA #1
01807  ADAE  20 FB A3           JSR GETSTK
01808  ADB1  20 83 AE           JSR EVAL
01809  ADB4  A9 00              LDA #0
01810  ADB6  85 4D              STA OPMASK
01811  ADB8  20 79 00    TSTOP  JSR CHRGOT
01812  ADBB  38          LOPREL SEC
01813  ADBC  E9 B1              SBC #GREATK
01814  ADBE  90 17              BCC ENDREL
01815  ADC0  C9 03              CMP #LESSTK-GREATK+1
01816  ADC2  B0 13              BCS ENDREL
01817  ADC4  C9 01              CMP #1
01818  ADC6  2A                 ROL A
01819  ADC7  49 01              EOR #1
01820  ADC9  45 4D              EOR OPMASK
01821  ADCB  C5 4D              CMP OPMASK
01822  ADCD  90 61              BCC SNERR5
01823  ADCF  85 4D              STA OPMASK
01824  ADD1  20 73 00           JSR CHRGET
01825  ADD4  4C BB AD           JMP LOPREL
01826  ADD7  A6 4D       ENDREL LDX OPMASK
01827  ADD9  D0 2C              BNE FINREL
01828  ADDB  B0 7B              BCS QOP
01829  ADDD  69 07              ADC #GREATK-PLUSTK
01830  ADDF  90 77              BCC QOP
01831  ADE1  65 0D              ADC VALTYP
01832  ADE3  D0 03              BNE *+5
01833  ADE5  4C 3D B6           JMP CAT
01834  ADE8  69 FF              ADC #$FF
01835  ADEA  85 22              STA INDEX1
01836  ADEC  0A                 ASL A
01837  ADED  65 22              ADC INDEX1
01838  ADEF  A8                 TAY 
01839  ADF0  68          QPREC  PLA
01840  ADF1  D9 80 A0           CMP OPTAB,Y
01841  ADF4  B0 67              BCS QCHNUM
01842  ADF6  20 8D AD           JSR CHKNUM
01843  ADF9  48          DOPREC PHA
01844  ADFA  20 20 AE    NEGPRC JSR DOPRE1
01845  ADFD  68                 PLA






CODE9......PAGE 0042

LINE# LOC   CODE        LINE


01846  ADFE  A4 4B              LDY OPPTR
01847  AE00  10 17              BPL QPREC1
01848  AE02  AA                 TAX
01849  AE03  F0 56              BEQ QOPGO
01850  AE05  D0 5F              BNE PULSTK
01851  AE07  46 0D       FINREL LSR VALTYP
01852  AE09  8A                 TXA
01853  AE0A  2A                 ROL A
01854  AE0B  A6 7A              LDX TXTPTR
01855  AE0D  D0 02              BNE FINRE2
01856  AE0F  C6 7B              DEC TXTPTR+1
01857  AE11  C6 7A       FINRE2 DEC TXTPTR
01858  AE13  A0 1B              LDY #PTDORL-OPTAB
01859  AE15  85 4D              STA OPMASK
01860  AE17  D0 D7              BNE QPREC
01861  AE19  D9 80 A0    QPREC1 CMP OPTAB,Y
01862  AE1C  B0 48              BCS PULSTK
01863  AE1E  90 D9              BCC DOPREC
01864  AE20  B9 82 A0    DOPRE1 LDA OPTAB+2,Y
01865  AE23  48                 PHA
01866  AE24  B9 81 A0           LDA OPTAB+1,Y
01867  AE27  48                 PHA
01868  AE28  20 33 AE           JSR PUSHF1
01869  AE2B  A5 4D              LDA OPMASK
01870  AE2D  4C A9 AD           JMP LPOPER
01871  AE30  4C 08 AF    SNERR5 JMP SNERR
01872  AE33  A5 66       PUSHF1 LDA FACSGN
01873  AE35  BE 80 A0           LDX OPTAB,Y
01874  AE38  A8          PUSHF  TAY
01875  AE39  68                 PLA
01876  AE3A  85 22              STA INDEX1
01877  AE3C  E6 22              INC INDEX1
01878  AE3E  68                 PLA
01879  AE3F  85 23              STA INDEX1+1
01880  AE41  98                 TYA
01881  AE42  48                 PHA
01882  AE43  20 1B BC    FORPSH JSR ROUND
01883  AE46  A5 65              LDA FACLO
01884  AE48  48                 PHA
01885  AE49  A5 64              LDA FACMO
01886  AE4B  48                 PHA
01887  AE4C  A5 63              LDA FACMOH
01888  AE4E  48                 PHA
01889  AE4F  A5 62              LDA FACHO
01890  AE51  48                 PHA
01891  AE52  A5 61              LDA FACEXP
01892  AE54  48                 PHA
01893  AE55  6C 22 00           JMP (INDEX1)
01894  AE58  A0 FF       QOP    LDY #255
01895  AE5A  68                 PLA
01896  AE5B  F0 23       QOPGO  BEQ QOPRTS
01897  AE5D  C9 64       QCHNUM CMP #100
01898  AE5F  F0 03              BEQ UNPSTK
01899  AE61  20 8D AD           JSR CHKNUM
01900  AE64  84 4B       UNPSTK STY OPPTR






CODE9......PAGE 0043

LINE# LOC   CODE        LINE


01901  AE66  68          PULSTK PLA
01902  AE67  4A                 LSR A
01903  AE68  85 12              STA DOMASK
01904  AE6A  68                 PLA
01905  AE6B  85 69              STA ARGEXP
01906  AE6D  68                 PLA
01907  AE6E  85 6A              STA ARGHO
01908  AE70  68                 PLA
01909  AE71  85 6B              STA ARGMOH
01910  AE73  68                 PLA
01911  AE74  85 6C              STA ARGMO
01912  AE76  68                 PLA
01913  AE77  85 6D              STA ARGLO
01914  AE79  68                 PLA
01915  AE7A  85 6E              STA ARGSGN
01916  AE7C  45 66              EOR FACSGN
01917  AE7E  85 6F              STA ARISGN
01918  AE80  A5 61       QOPRTS LDA FACEXP
01919  AE82  60          UNPRTS RTS





01921  AE83  6C 0A 03    EVAL   JMP (IEVAL)
01922  AE86  A9 00       NEVAL  LDA #0
01923  AE88  85 0D              STA VALTYP
01924  AE8A  20 73 00    EVAL0  JSR CHRGET
01925  AE8D  B0 03              BCS EVAL2
01926  AE8F  4C F3 BC    EVAL1  JMP FIN
01927  AE92  20 13 B1    EVAL2  JSR ISLETC
01928  AE95  90 03              BCC *+5
01929  AE97  4C 28 AF           JMP ISVAR
01930  AE9A  C9 FF              CMP #PI
01931  AE9C  D0 0F              BNE QDOT
01932  AE9E  A9 A8              LDA #<PIVAL
01933  AEA0  A0 AE              LDY #>PIVAL
01934  AEA2  20 A2 BB           JSR MOVFM
01935  AEA5  4C 73 00           JMP CHRGET
01936  AEA8  82          PIVAL  .BYT @202
01937  AEA9  49                 .BYT @111
01938  AEAA  0F                 .BYT @017
01939  AEAB  DA                 .BYT @332
01940  AEAC  A1                 .BYT @241
01941  AEAD  C9 2E       QDOT   CMP #'.
01942  AEAF  F0 DE              BEQ EVAL1
01943  AEB1  C9 AB              CMP #MINUTK
01944  AEB3  F0 58              BEQ DOMIN
01945  AEB5  C9 AA              CMP #PLUSTK
01946  AEB7  F0 D1              BEQ EVAL0
01947  AEB9  C9 22              CMP #34
01948  AEBB  D0 0F              BNE EVAL3
01949  AEBD  A5 7A       STRTXT LDA TXTPTR
01950  AEBF  A4 7B              LDY TXTPTR+1
01951  AEC1  69 00              ADC #0






CODE9......PAGE 0044

LINE# LOC   CODE        LINE


01952  AEC3  90 01              BCC STRTX2
01953  AEC5  C8                 INY
01954  AEC6  20 87 B4    STRTX2 JSR STRLIT
01955  AEC9  4C E2 B7           JMP ST2TXT
01956  AECC  C9 A8       EVAL3  CMP #NOTTK
01957  AECE  D0 13              BNE EVAL4
01958  AED0  A0 18              LDY #24
01959  AED2  D0 3B              BNE GONPRC
01960  AED4  20 BF B1    NOTOP  JSR AYINT
01961  AED7  A5 65              LDA FACLO
01962  AED9  49 FF              EOR #255
01963  AEDB  A8                 TAY
01964  AEDC  A5 64              LDA FACMO
01965  AEDE  49 FF              EOR #255
01966  AEE0  4C 91 B3           JMP GIVAYF
01967  AEE3  C9 A5       EVAL4  CMP #FNTK
01968  AEE5  D0 03              BNE *+5
01969  AEE7  4C F4 B3           JMP FNDOER
01970  AEEA  C9 B4              CMP #ONEFUN
01971  AEEC  90 03              BCC PARCHK
01972  AEEE  4C A7 AF           JMP ISFUN
01973  AEF1  20 FA AE    PARCHK JSR CHKOPN
01974  AEF4  20 9E AD           JSR FRMEVL
01975  AEF7  A9 29       CHKCLS LDA #41
01976  AEF9  2C                 .BYT $2C
01977  AEFA  A9 28       CHKOPN LDA #40
01978  AEFC  2C                 .BYT $2C
01979  AEFD  A9 2C       CHKCOM LDA #44
01980  AEFF  A0 00       SYNCHR LDY #0
01981  AF01  D1 7A              CMP (TXTPTR)Y
01982  AF03  D0 03              BNE SNERR
01983  AF05  4C 73 00           JMP CHRGET
01984  AF08  A2 0B       SNERR  LDX #ERRSN
01985  AF0A  4C 37 A4           JMP ERROR
01986  AF0D  A0 15       DOMIN  LDY #21
01987  AF0F  68          GONPRC PLA
01988  AF10  68                 PLA
01989  AF11  4C FA AD           JMP NEGPRC
01990  AF14              .END
01991  AF14              .LIB   CODE10





















CODE10......PAGE 0045

LINE# LOC   CODE        LINE


01993  AF14              ;TEST POINTER TO VARIABLE TO SEE
01994  AF14              ;IF CONSTANT IS CONTAINED IN BASIC.
01995  AF14              ;ARRAY VARIABLES HAVE ZEROES PLACED
01996  AF14              ;IN RAM. UNDEFINED SIMPLE VARIABLES
01997  AF14              ;HAVE POINTER T ZERO IN BASIC.
01998  AF14              ;
01999  AF14  38          TSTROM SEC
02000  AF15  A5 64              LDA FACMO
02001  AF17  E9 00              SBC #<ROMLOC
02002  AF19  A5 65              LDA FACLO
02003  AF1B  E9 A0              SBC #>ROMLOC
02004  AF1D  90 08              BCC TSTR10
02005  AF1F              ;
02006  AF1F  A9 A2              LDA #<INITAT
02007  AF21  E5 64              SBC FACMO
02008  AF23  A9 E3              LDA #>INITAT
02009  AF25  E5 65              SBC FACLO
02010  AF27              ;
02011  AF27  60          TSTR10 RTS





02013  AF28  20 8B B0    ISVAR  JSR PTRGET
02014  AF2B  85 64       ISVRET STA FACMO
02015  AF2D  84 65              STY FACMO+1
02016  AF2F  A6 45              LDX VARNAM
02017  AF31  A4 46              LDY VARNAM+1
02018  AF33  A5 0D              LDA VALTYP
02019  AF35  F0 26              BEQ GOOO
02020  AF37  A9 00              LDA #0
02021  AF39  85 70              STA FACOV
02022  AF3B  20 14 AF           JSR TSTROM      ;SEE IF AN ARRAY
02023  AF3E  90 1C              BCC STRRTS      ;DON'T TEST ST(I),TI(I)
02024  AF40  E0 54              CPX #'T
02025  AF42  D0 18              BNE STRRTS
02026  AF44  C0 C9              CPY #$C9
02027  AF46  D0 14              BNE STRRTS
02028  AF48  20 84 AF           JSR GETTIM
02029  AF4B  84 5E              STY TENEXP
02030  AF4D  88                 DEY
02031  AF4E  84 71              STY FBUFPT
02032  AF50  A0 06              LDY #6
02033  AF52  84 5D              STY DECCNT
02034  AF54  A0 24              LDY #FDCEND-FOUTBL
02035  AF56  20 68 BE           JSR FOUTIM
02036  AF59  4C 6F B4           JMP TIMSTR
02037  AF5C  60          STRRTS RTS
02038  AF5D  24 0E       GOOO   BIT INTFLG
02039  AF5F  10 0D              BPL GOOOOO
02040  AF61  A0 00              LDY #0
02041  AF63  B1 64              LDA (FACMO)Y
02042  AF65  AA                 TAX
02043  AF66  C8                 INY






CODE10......PAGE 0046

LINE# LOC   CODE        LINE


02044  AF67  B1 64              LDA (FACMO)Y
02045  AF69  A8                 TAY
02046  AF6A  8A                 TXA
02047  AF6B  4C 91 B3           JMP GIVAYF
02048  AF6E  20 14 AF    GOOOOO JSR TSTROM      ;SEE IF ARRAY
02049  AF71  90 2D              BCC GOMOVF      ;DON'T TEST ST(I),TI(I)
02050  AF73  E0 54              CPX #'T
02051  AF75  D0 1B              BNE QSTATV
02052  AF77  C0 49              CPY #'I
02053  AF79  D0 25              BNE GOMOVF
02054  AF7B  20 84 AF           JSR GETTIM
02055  AF7E  98                 TYA
02056  AF7F  A2 A0              LDX #160
02057  AF81  4C 4F BC           JMP FLOATB
02058  AF84  20 DE FF    GETTIM JSR RDTIM
02059  AF87  86 64              STX FACMO
02060  AF89  84 63              STY FACMOH
02061  AF8B  85 65              STA FACLO
02062  AF8D  A0 00              LDY #0
02063  AF8F  84 62              STY FACHO
02064  AF91  60                 RTS
02065  AF92  E0 53       QSTATV CPX #'S
02066  AF94  D0 0A              BNE GOMOVF
02067  AF96  C0 54              CPY #'T
02068  AF98  D0 06              BNE GOMOVF
02069  AF9A  20 B7 FF           JSR READST
02070  AF9D  4C 3C BC           JMP FLOAT
02071  AFA0  A5 64       GOMOVF LDA FACMO
02072  AFA2  A4 65              LDY FACMO+1
02073  AFA4  4C A2 BB           JMP MOVFM
02074  AFA7  0A          ISFUN  ASL A
02075  AFA8  48                 PHA
02076  AFA9  AA                 TAX
02077  AFAA  20 73 00           JSR CHRGET
02078  AFAD  E0 8F              CPX #LASNUM+LASNUM-255
02079  AFAF  90 20              BCC OKNORM
02080  AFB1  20 FA AE           JSR CHKOPN
02081  AFB4  20 9E AD           JSR FRMEVL
02082  AFB7  20 FD AE           JSR CHKCOM
02083  AFBA  20 8F AD           JSR CHKSTR
02084  AFBD  68                 PLA
02085  AFBE  AA                 TAX
02086  AFBF  A5 65              LDA FACMO+1
02087  AFC1  48                 PHA
02088  AFC2  A5 64              LDA FACMO
02089  AFC4  48                 PHA
02090  AFC5  8A                 TXA
02091  AFC6  48                 PHA
02092  AFC7  20 9E B7           JSR GETBYT
02093  AFCA  68                 PLA
02094  AFCB  A8                 TAY
02095  AFCC  8A                 TXA
02096  AFCD  48                 PHA
02097  AFCE  4C D6 AF           JMP FINGO
02098  AFD1  20 F1 AE    OKNORM JSR PARCHK






CODE10......PAGE 0047

LINE# LOC   CODE        LINE


02099  AFD4  68                 PLA
02100  AFD5  A8                 TAY
02101  AFD6  B9 EA 9F    FINGO  LDA FUNDSP-ONEFUN-ONEFUN+256,Y
02102  AFD9  85 55              STA JMPER+1
02103  AFDB  B9 EB 9F           LDA FUNDSP-ONEFUN-ONEFUN+257,Y
02104  AFDE  85 56              STA JMPER+2
02105  AFE0  20 54 00           JSR JMPER
02106  AFE3  4C 8D AD           JMP CHKNUM
02107  AFE6  A0 FF       OROP   LDY #255
02108  AFE8  2C                 .BYT $2C
02109  AFE9  A0 00       ANDOP  LDY #0
02110  AFEB  84 0B              STY COUNT
02111  AFED  20 BF B1           JSR AYINT
02112  AFF0  A5 64              LDA FACMO
02113  AFF2  45 0B              EOR COUNT
02114  AFF4  85 07              STA INTEGR
02115  AFF6  A5 65              LDA FACLO
02116  AFF8  45 0B              EOR COUNT
02117  AFFA  85 08              STA INTEGR+1
02118  AFFC  20 FC BB           JSR MOVFA
02119  AFFF  20 BF B1           JSR AYINT
02120  B002  A5 65              LDA FACLO
02121  B004  45 0B              EOR COUNT
02122  B006  25 08              AND INTEGR+1
02123  B008  45 0B              EOR COUNT
02124  B00A  A8                 TAY
02125  B00B  A5 64              LDA FACMO
02126  B00D  45 0B              EOR COUNT
02127  B00F  25 07              AND INTEGR
02128  B011  45 0B              EOR COUNT
02129  B013  4C 91 B3           JMP GIVAYF
02130  B016  20 90 AD    DOREL  JSR CHKVAL
02131  B019  B0 13              BCS STRCMP
02132  B01B  A5 6E              LDA ARGSGN
02133  B01D  09 7F              ORA #127
02134  B01F  25 6A              AND ARGHO
02135  B021  85 6A              STA ARGHO
02136  B023  A9 69              LDA #<ARGEXP
02137  B025  A0 00              LDY #>ARGEXP
02138  B027  20 5B BC           JSR FCOMP
02139  B02A  AA                 TAX
02140  B02B  4C 61 B0           JMP QCOMP
02141  B02E  A9 00       STRCMP LDA #0
02142  B030  85 0D              STA VALTYP
02143  B032  C6 4D              DEC OPMASK
02144  B034  20 A6 B6           JSR FREFAC
02145  B037  85 61              STA DSCTMP
02146  B039  86 62              STX DSCTMP+1
02147  B03B  84 63              STY DSCTMP+2
02148  B03D  A5 6C              LDA ARGMO
02149  B03F  A4 6D              LDY ARGMO+1
02150  B041  20 AA B6           JSR FRETMP
02151  B044  86 6C              STX ARGMO
02152  B046  84 6D              STY ARGMO+1
02153  B048  AA                 TAX






CODE10......PAGE 0048

LINE# LOC   CODE        LINE


02154  B049  38                 SEC
02155  B04A  E5 61              SBC DSCTMP
02156  B04C  F0 08              BEQ STASGN
02157  B04E  A9 01              LDA #1
02158  B050  90 04              BCC STASGN
02159  B052  A6 61              LDX DSCTMP
02160  B054  A9 FF              LDA #$FF
02161  B056  85 66       STASGN STA FACSGN
02162  B058  A0 FF              LDY #255
02163  B05A  E8                 INX
02164  B05B  C8          NXTCMP INY
02165  B05C  CA                 DEX
02166  B05D  D0 07              BNE GETCMP
02167  B05F  A6 66              LDX FACSGN
02168  B061  30 0F       QCOMP  BMI DOCMP
02169  B063  18                 CLC
02170  B064  90 0C              BCC DOCMP
02171  B066  B1 6C       GETCMP LDA (ARGMO)Y
02172  B068              .END
02173  B068              .LIB   CODE11









































CODE11......PAGE 0049

LINE# LOC   CODE        LINE


02175  B068  D1 62              CMP (DSCTMP+1)Y
02176  B06A  F0 EF              BEQ NXTCMP
02177  B06C  A2 FF              LDX #$FF
02178  B06E  B0 02              BCS DOCMP
02179  B070  A2 01              LDX #1
02180  B072  E8          DOCMP  INX
02181  B073  8A                 TXA
02182  B074  2A                 ROL A
02183  B075  25 12              AND DOMASK
02184  B077  F0 02              BEQ GOFLOT
02185  B079  A9 FF              LDA #$FF
02186  B07B  4C 3C BC    GOFLOT JMP FLOAT
02187  B07E  20 FD AE    DIM3   JSR CHKCOM
02188  B081  AA          DIM    TAX
02189  B082  20 90 B0           JSR PTRGT1
02190  B085  20 79 00           JSR CHRGOT
02191  B088  D0 F4              BNE DIM3
02192  B08A  60                 RTS
02193  B08B  A2 00       PTRGET LDX #0
02194  B08D  20 79 00           JSR CHRGOT
02195  B090  86 0C       PTRGT1 STX DIMFLG
02196  B092  85 45       PTRGT2 STA VARNAM
02197  B094  20 79 00           JSR CHRGOT
02198  B097  20 13 B1           JSR ISLETC
02199  B09A  B0 03              BCS PTRGT3
02200  B09C  4C 08 AF    INTERR JMP SNERR
02201  B09F  A2 00       PTRGT3 LDX #0
02202  B0A1  86 0D              STX VALTYP
02203  B0A3  86 0E              STX INTFLG
02204  B0A5  20 73 00           JSR CHRGET
02205  B0A8  90 05              BCC ISSEC
02206  B0AA  20 13 B1           JSR ISLETC
02207  B0AD  90 0B              BCC NOSEC
02208  B0AF  AA          ISSEC  TAX
02209  B0B0  20 73 00    EATEM  JSR CHRGET
02210  B0B3  90 FB              BCC EATEM
02211  B0B5  20 13 B1           JSR ISLETC
02212  B0B8  B0 F6              BCS EATEM
02213  B0BA  C9 24       NOSEC  CMP #'$
02214  B0BC  D0 06              BNE NOTSTR
02215  B0BE  A9 FF              LDA #$FF
02216  B0C0  85 0D              STA VALTYP
02217  B0C2  D0 10              BNE TURNON
02218  B0C4  C9 25       NOTSTR CMP #'%
02219  B0C6  D0 13              BNE STRNAM
02220  B0C8  A5 10              LDA SUBFLG
02221  B0CA  D0 D0              BNE INTERR
02222  B0CC  A9 80              LDA #128
02223  B0CE  85 0E              STA INTFLG
02224  B0D0  05 45              ORA VARNAM
02225  B0D2  85 45              STA VARNAM
02226  B0D4  8A          TURNON TXA
02227  B0D5  09 80              ORA #128
02228  B0D7  AA                 TAX
02229  B0D8  20 73 00           JSR CHRGET






CODE11......PAGE 0050

LINE# LOC   CODE        LINE


02230  B0DB  86 46       STRNAM STX VARNAM+1
02231  B0DD  38                 SEC
02232  B0DE  05 10              ORA SUBFLG
02233  B0E0  E9 28              SBC #40
02234  B0E2  D0 03              BNE *+5
02235  B0E4  4C D1 B1           JMP ISARY
02236  B0E7  A0 00              LDY #0
02237  B0E9  84 10              STY SUBFLG
02238  B0EB  A5 2D              LDA VARTAB
02239  B0ED  A6 2E              LDX VARTAB+1
02240  B0EF  86 60       STXFND STX LOWTR+1
02241  B0F1  85 5F       LOPFND STA LOWTR
02242  B0F3  E4 30              CPX ARYTAB+1
02243  B0F5  D0 04              BNE LOPFN
02244  B0F7  C5 2F              CMP ARYTAB
02245  B0F9  F0 22              BEQ NOTFNS
02246  B0FB  A5 45       LOPFN  LDA VARNAM
02247  B0FD  D1 5F              CMP (LOWTR)Y
02248  B0FF  D0 08              BNE NOTIT
02249  B101  A5 46              LDA VARNAM+1
02250  B103  C8                 INY
02251  B104  D1 5F              CMP (LOWTR)Y
02252  B106  F0 7D              BEQ FINPTR
02253  B108  88                 DEY
02254  B109  18          NOTIT  CLC
02255  B10A  A5 5F              LDA LOWTR
02256  B10C  69 07              ADC #6+ADDPRC
02257  B10E  90 E1              BCC LOPFND
02258  B110  E8                 INX
02259  B111  D0 DC              BNE STXFND
02260  B113  C9 41       ISLETC CMP #'A
02261  B115  90 05              BCC ISLRTS
02262  B117  E9 5B              SBC #$5B
02263  B119  38                 SEC
02264  B11A  E9 A5              SBC #@245
02265  B11C  60          ISLRTS RTS
02266  B11D  68          NOTFNS PLA
02267  B11E  48                 PHA
02268  B11F              ZZ6=ISVRET-1
02269  B11F  C9 2A              CMP #<ZZ6 
02270  B121  D0 05              BNE NOTEVL
02271  B123  A9 13       LDZR   LDA #<ZERO
02272  B125  A0 BF              LDY #>ZERO
02273  B127  60                 RTS
02274  B128  A5 45       NOTEVL LDA VARNAM
02275  B12A  A4 46              LDY VARNAM+1
02276  B12C  C9 54              CMP #'T
02277  B12E  D0 0B              BNE QSTAVR
02278  B130  C0 C9              CPY #@311
02279  B132  F0 EF              BEQ LDZR
02280  B134  C0 49              CPY #@111
02281  B136  D0 03              BNE QSTAVR
02282  B138  4C 08 AF    GOBADV JMP SNERR
02283  B13B              QSTAVR
02284  B13B  C9 53              CMP #'S






CODE11......PAGE 0051

LINE# LOC   CODE        LINE


02285  B13D  D0 04              BNE VAROK
02286  B13F  C0 54              CPY #'T
02287  B141  F0 F5              BEQ GOBADV
02288  B143  A5 2F       VAROK  LDA ARYTAB
02289  B145  A4 30              LDY ARYTAB+1
02290  B147  85 5F              STA LOWTR
02291  B149  84 60              STY LOWTR+1
02292  B14B  A5 31              LDA STREND
02293  B14D  A4 32              LDY STREND+1
02294  B14F  85 5A              STA HIGHTR
02295  B151  84 5B              STY HIGHTR+1
02296  B153  18                 CLC
02297  B154  69 07              ADC #6+ADDPRC
02298  B156  90 01              BCC NOTEVE
02299  B158  C8                 INY
02300  B159  85 58       NOTEVE STA HIGHDS
02301  B15B  84 59              STY HIGHDS+1
02302  B15D  20 B8 A3           JSR BLTU
02303  B160  A5 58              LDA HIGHDS
02304  B162  A4 59              LDY HIGHDS+1
02305  B164  C8                 INY
02306  B165  85 2F              STA ARYTAB
02307  B167  84 30              STY ARYTAB+1
02308  B169  A0 00              LDY #0
02309  B16B  A5 45              LDA VARNAM
02310  B16D  91 5F              STA (LOWTR)Y
02311  B16F  C8                 INY
02312  B170  A5 46              LDA VARNAM+1
02313  B172  91 5F              STA (LOWTR)Y
02314  B174  A9 00              LDA #0
02315  B176  C8                 INY
02316  B177  91 5F              STA (LOWTR)Y
02317  B179  C8                 INY
02318  B17A  91 5F              STA (LOWTR)Y
02319  B17C  C8                 INY
02320  B17D  91 5F              STA (LOWTR)Y
02321  B17F  C8                 INY
02322  B180  91 5F              STA (LOWTR)Y
02323  B182  C8                 INY
02324  B183  91 5F              STA (LOWTR)Y
02325  B185  A5 5F       FINPTR LDA LOWTR
02326  B187  18                 CLC
02327  B188  69 02              ADC #2
02328  B18A  A4 60              LDY LOWTR+1
02329  B18C  90 01              BCC FINNOW
02330  B18E  C8                 INY
02331  B18F  85 47       FINNOW STA VARPNT
02332  B191  84 48              STY VARPNT+1
02333  B193  60                 RTS
02334  B194  A5 0B       FMAPTR LDA COUNT
02335  B196  0A                 ASL A
02336  B197  69 05              ADC #5
02337  B199  65 5F              ADC LOWTR
02338  B19B  A4 60              LDY LOWTR+1
02339  B19D  90 01              BCC JSRGM






CODE11......PAGE 0052

LINE# LOC   CODE        LINE


02340  B19F  C8                 INY
02341  B1A0  85 58       JSRGM  STA ARYPNT
02342  B1A2  84 59              STY ARYPNT+1
02343  B1A4  60                 RTS
02344  B1A5              .END
02345  B1A5              .LIB   CODE12























































CODE12......PAGE 0053

LINE# LOC   CODE        LINE


02347  B1A5  90          N32768 .BYT 144,128,0,0,0
02347  B1A6  80 
02347  B1A7  00 
02347  B1A8  00 
02347  B1A9  00 
02348  B1AA  20 BF B1    FLPINT JSR AYINT
02349  B1AD  A5 64              LDA FACMO
02350  B1AF  A4 65              LDY  FACLO
02351  B1B1  60                 RTS
02352  B1B2  20 73 00    INTIDX JSR CHRGET
02353  B1B5  20 9E AD           JSR FRMEVL
02354  B1B8  20 8D AD    POSINT JSR CHKNUM
02355  B1BB  A5 66              LDA FACSGN
02356  B1BD  30 0D              BMI NONONO
02357  B1BF  A5 61       AYINT  LDA FACEXP
02358  B1C1  C9 90              CMP #144
02359  B1C3  90 09              BCC QINTGO
02360  B1C5  A9 A5              LDA #<N32768
02361  B1C7  A0 B1              LDY #>N32768
02362  B1C9  20 5B BC           JSR FCOMP
02363  B1CC  D0 7A       NONONO BNE FCERR
02364  B1CE  4C 9B BC    QINTGO JMP QINT
02365  B1D1  A5 0C       ISARY  LDA DIMFLG
02366  B1D3  05 0E              ORA INTFLG
02367  B1D5  48                 PHA
02368  B1D6  A5 0D              LDA VALTYP
02369  B1D8  48                 PHA
02370  B1D9  A0 00              LDY #0
02371  B1DB  98          INDLOP TYA
02372  B1DC  48                 PHA
02373  B1DD  A5 46              LDA VARNAM+1
02374  B1DF  48                 PHA
02375  B1E0  A5 45              LDA VARNAM
02376  B1E2  48                 PHA
02377  B1E3  20 B2 B1           JSR INTIDX
02378  B1E6  68                 PLA
02379  B1E7  85 45              STA VARNAM
02380  B1E9  68                 PLA
02381  B1EA  85 46              STA VARNAM+1
02382  B1EC  68                 PLA
02383  B1ED  A8                 TAY
02384  B1EE  BA                 TSX
02385  B1EF  BD 02 01           LDA 258,X
02386  B1F2  48                 PHA
02387  B1F3  BD 01 01           LDA 257,X
02388  B1F6  48                 PHA
02389  B1F7  A5 64              LDA INDICE
02390  B1F9  9D 02 01           STA 258,X
02391  B1FC  A5 65              LDA INDICE+1
02392  B1FE  9D 01 01           STA 257,X
02393  B201  C8                 INY
02394  B202  20 79 00           JSR CHRGOT
02395  B205  C9 2C              CMP #44
02396  B207  F0 D2              BEQ INDLOP
02397  B209  84 0B              STY COUNT






CODE12......PAGE 0054

LINE# LOC   CODE        LINE


02398  B20B  20 F7 AE           JSR CHKCLS
02399  B20E  68                 PLA
02400  B20F  85 0D              STA VALTYP
02401  B211  68                 PLA
02402  B212  85 0E              STA INTFLG
02403  B214  29 7F              AND #127
02404  B216  85 0C              STA DIMFLG
02405  B218  A6 2F              LDX ARYTAB
02406  B21A  A5 30              LDA ARYTAB+1
02407  B21C  86 5F       LOPFDA STX LOWTR
02408  B21E  85 60              STA LOWTR+1
02409  B220  C5 32              CMP STREND+1
02410  B222  D0 04              BNE LOPFDV
02411  B224  E4 31              CPX STREND
02412  B226  F0 39              BEQ NOTFDD
02413  B228  A0 00       LOPFDV LDY #0
02414  B22A  B1 5F              LDA (LOWTR)Y
02415  B22C  C8                 INY
02416  B22D  C5 45              CMP VARNAM
02417  B22F  D0 06              BNE NMARY1
02418  B231  A5 46              LDA VARNAM+1
02419  B233  D1 5F              CMP (LOWTR)Y
02420  B235  F0 16              BEQ GOTARY
02421  B237  C8          NMARY1 INY
02422  B238  B1 5F              LDA (LOWTR)Y
02423  B23A  18                 CLC
02424  B23B  65 5F              ADC LOWTR
02425  B23D  AA                 TAX
02426  B23E  C8                 INY
02427  B23F  B1 5F              LDA (LOWTR)Y
02428  B241  65 60              ADC LOWTR+1
02429  B243  90 D7              BCC LOPFDA
02430  B245  A2 12       BSERR  LDX #ERRBS
02431  B247  2C                 .BYT $2C
02432  B248  A2 0E       FCERR  LDX #ERRFC
02433  B24A  4C 37 A4    ERRGO3 JMP ERROR
02434  B24D  A2 13       GOTARY LDX #ERRDD
02435  B24F  A5 0C              LDA DIMFLG
02436  B251  D0 F7              BNE ERRGO3
02437  B253  20 94 B1           JSR FMAPTR
02438  B256  A5 0B              LDA COUNT
02439  B258  A0 04              LDY #4
02440  B25A  D1 5F              CMP (LOWTR)Y
02441  B25C  D0 E7              BNE BSERR
02442  B25E  4C EA B2           JMP GETDEF
02443  B261  20 94 B1    NOTFDD JSR FMAPTR
02444  B264  20 08 A4           JSR REASON
02445  B267  A0 00              LDY #0
02446  B269  84 72              STY CURTOL+1
02447  B26B  A2 05              LDX #5
02448  B26D  A5 45              LDA VARNAM
02449  B26F  91 5F              STA (LOWTR)Y
02450  B271  10 01              BPL NOTFLT
02451  B273  CA                 DEX
02452  B274  C8          NOTFLT INY






CODE12......PAGE 0055

LINE# LOC   CODE        LINE


02453  B275  A5 46              LDA VARNAM+1
02454  B277  91 5F              STA (LOWTR)Y
02455  B279  10 02              BPL STOMLT
02456  B27B  CA                 DEX
02457  B27C  CA                 DEX
02458  B27D  86 71       STOMLT STX CURTOL
02459  B27F  A5 0B              LDA COUNT
02460  B281  C8                 INY
02461  B282  C8                 INY
02462  B283  C8                 INY
02463  B284  91 5F              STA (LOWTR)Y
02464  B286  A2 0B       LOPPTA LDX #11
02465  B288  A9 00              LDA #0
02466  B28A  24 0C              BIT DIMFLG
02467  B28C  50 08              BVC NOTDIM
02468  B28E  68                 PLA
02469  B28F  18                 CLC
02470  B290  69 01              ADC #1
02471  B292  AA                 TAX
02472  B293  68                 PLA
02473  B294  69 00              ADC #0
02474  B296  C8          NOTDIM INY
02475  B297  91 5F              STA (LOWTR)Y
02476  B299  C8                 INY
02477  B29A  8A                 TXA
02478  B29B  91 5F              STA (LOWTR)Y
02479  B29D  20 4C B3           JSR UMULT
02480  B2A0  86 71              STX CURTOL
02481  B2A2  85 72              STA CURTOL+1
02482  B2A4  A4 22              LDY INDEX
02483  B2A6  C6 0B              DEC COUNT
02484  B2A8  D0 DC              BNE LOPPTA
02485  B2AA  65 59              ADC ARYPNT+1
02486  B2AC  B0 5D              BCS OMERR1
02487  B2AE  85 59              STA ARYPNT+1
02488  B2B0  A8                 TAY
02489  B2B1  8A                 TXA
02490  B2B2  65 58              ADC ARYPNT
02491  B2B4  90 03              BCC GREASE
02492  B2B6  C8                 INY
02493  B2B7  F0 52              BEQ OMERR1
02494  B2B9  20 08 A4    GREASE JSR REASON
02495  B2BC  85 31              STA STREND
02496  B2BE  84 32              STY STREND+1
02497  B2C0  A9 00              LDA #0
02498  B2C2  E6 72              INC CURTOL+1
02499  B2C4              .END
02500  B2C4              .LIB   CODE13













CODE13......PAGE 0056

LINE# LOC   CODE        LINE


02502  B2C4  A4 71              LDY CURTOL
02503  B2C6  F0 05              BEQ DECCUR
02504  B2C8  88          ZERITA DEY
02505  B2C9  91 58              STA (ARYPNT)Y
02506  B2CB  D0 FB              BNE ZERITA
02507  B2CD  C6 59       DECCUR DEC ARYPNT+1
02508  B2CF  C6 72              DEC CURTOL+1
02509  B2D1  D0 F5              BNE ZERITA
02510  B2D3  E6 59              INC ARYPNT+1
02511  B2D5  38                 SEC
02512  B2D6  A5 31              LDA STREND
02513  B2D8  E5 5F              SBC LOWTR
02514  B2DA  A0 02              LDY #2
02515  B2DC  91 5F              STA (LOWTR)Y
02516  B2DE  A5 32              LDA STREND+1
02517  B2E0  C8                 INY
02518  B2E1  E5 60              SBC LOWTR+1
02519  B2E3  91 5F              STA (LOWTR)Y
02520  B2E5  A5 0C              LDA DIMFLG
02521  B2E7  D0 62              BNE DIMRTS
02522  B2E9  C8                 INY
02523  B2EA  B1 5F       GETDEF LDA (LOWTR)Y
02524  B2EC  85 0B              STA COUNT
02525  B2EE  A9 00              LDA #0
02526  B2F0  85 71              STA CURTOL
02527  B2F2  85 72       INLPNM STA CURTOL+1
02528  B2F4  C8                 INY
02529  B2F5  68                 PLA
02530  B2F6  AA                 TAX
02531  B2F7  85 64              STA INDICE
02532  B2F9  68                 PLA
02533  B2FA  85 65              STA INDICE+1
02534  B2FC  D1 5F              CMP (LOWTR)Y
02535  B2FE  90 0E              BCC INLPN2
02536  B300  D0 06              BNE BSERR7
02537  B302  C8                 INY
02538  B303  8A                 TXA
02539  B304  D1 5F              CMP (LOWTR)Y
02540  B306  90 07              BCC INLPN1
02541  B308  4C 45 B2    BSERR7 JMP BSERR
02542  B30B  4C 35 A4    OMERR1 JMP OMERR
02543  B30E  C8          INLPN2 INY
02544  B30F  A5 72       INLPN1 LDA CURTOL+1
02545  B311  05 71              ORA CURTOL
02546  B313  18                 CLC
02547  B314  F0 0A              BEQ ADDIND
02548  B316  20 4C B3           JSR UMULT
02549  B319  8A                 TXA
02550  B31A  65 64              ADC INDICE
02551  B31C  AA                 TAX
02552  B31D  98                 TYA
02553  B31E  A4 22              LDY INDEX1
02554  B320  65 65       ADDIND ADC INDICE+1
02555  B322  86 71              STX CURTOL
02556  B324  C6 0B              DEC COUNT






CODE13......PAGE 0057

LINE# LOC   CODE        LINE


02557  B326  D0 CA              BNE INLPNM
02558  B328  85 72              STA CURTOL+1
02559  B32A  A2 05              LDX #5
02560  B32C  A5 45              LDA VARNAM
02561  B32E  10 01              BPL NOTFL1
02562  B330  CA                 DEX
02563  B331  A5 46       NOTFL1 LDA VARNAM+1
02564  B333  10 02              BPL STOML1
02565  B335  CA                 DEX
02566  B336  CA                 DEX
02567  B337  86 28       STOML1 STX ADDEND
02568  B339  A9 00              LDA #0
02569  B33B  20 55 B3           JSR UMULTD
02570  B33E  8A                 TXA
02571  B33F  65 58              ADC ARYPNT
02572  B341  85 47              STA VARPNT
02573  B343  98                 TYA
02574  B344  65 59              ADC ARYPNT+1
02575  B346  85 48              STA VARPNT+1
02576  B348  A8                 TAY
02577  B349  A5 47              LDA VARPNT
02578  B34B  60          DIMRTS RTS
02579  B34C  84 22       UMULT  STY INDEX
02580  B34E  B1 5F              LDA (LOWTR)Y
02581  B350  85 28              STA ADDEND
02582  B352  88                 DEY
02583  B353  B1 5F              LDA (LOWTR)Y
02584  B355  85 29       UMULTD STA ADDEND+1
02585  B357  A9 10              LDA #16
02586  B359  85 5D              STA DECCNT
02587  B35B  A2 00              LDX #0
02588  B35D  A0 00              LDY #0
02589  B35F  8A          UMULTC TXA
02590  B360  0A                 ASL A
02591  B361  AA                 TAX
02592  B362  98                 TYA
02593  B363  2A                 ROL A
02594  B364  A8                 TAY
02595  B365  B0 A4              BCS OMERR1
02596  B367  06 71              ASL CURTOL
02597  B369  26 72              ROL CURTOL+1
02598  B36B  90 0B              BCC UMLCNT
02599  B36D  18                 CLC
02600  B36E  8A                 TXA
02601  B36F  65 28              ADC ADDEND
02602  B371  AA                 TAX
02603  B372  98                 TYA
02604  B373  65 29              ADC ADDEND+1
02605  B375  A8                 TAY
02606  B376  B0 93              BCS OMERR1
02607  B378  C6 5D       UMLCNT DEC DECCNT
02608  B37A  D0 E3              BNE UMULTC
02609  B37C  60          UMLRTS RTS
02610  B37D  A5 0D       FRE    LDA VALTYP
02611  B37F  F0 03              BEQ NOFREF






CODE13......PAGE 0058

LINE# LOC   CODE        LINE


02612  B381  20 A6 B6           JSR FREFAC
02613  B384  20 26 B5    NOFREF JSR GARBA2
02614  B387  38                 SEC
02615  B388  A5 33              LDA FRETOP
02616  B38A  E5 31              SBC STREND
02617  B38C  A8                 TAY
02618  B38D  A5 34              LDA FRETOP+1
02619  B38F  E5 32              SBC STREND+1
02620  B391  A2 00       GIVAYF LDX #0
02621  B393  86 0D              STX VALTYP
02622  B395  85 62              STA FACHO
02623  B397  84 63              STY FACHO+1
02624  B399  A2 90              LDX #144
02625  B39B  4C 44 BC           JMP FLOATS
02626  B39E  38          POS    SEC
02627  B39F  20 F0 FF           JSR PLOT        ;GET TAB POS IN .Y
02628  B3A2  A9 00       SNGFLT LDA #0
02629  B3A4  F0 EB              BEQ GIVAYF
02630  B3A6  A6 3A       ERRDIR LDX CURLIN+1
02631  B3A8  E8                 INX
02632  B3A9  D0 A0              BNE DIMRTS
02633  B3AB  A2 15              LDX #ERRID
02634  B3AD  2C                 .BYT $2C
02635  B3AE  A2 1B       ERRGUF LDX #ERRUF
02636  B3B0  4C 37 A4           JMP ERROR
02637  B3B3  20 E1 B3    DEF    JSR GETFNM
02638  B3B6  20 A6 B3           JSR ERRDIR
02639  B3B9  20 FA AE           JSR CHKOPN
02640  B3BC  A9 80              LDA #128
02641  B3BE  85 10              STA SUBFLG
02642  B3C0  20 8B B0           JSR PTRGET
02643  B3C3  20 8D AD           JSR CHKNUM
02644  B3C6  20 F7 AE           JSR CHKCLS
02645  B3C9  A9 B2              LDA #$B2
02646  B3CB  20 FF AE           JSR SYNCHR
02647  B3CE  48                 PHA
02648  B3CF  A5 48              LDA VARPNT+1
02649  B3D1  48                 PHA
02650  B3D2  A5 47              LDA VARPNT
02651  B3D4  48                 PHA
02652  B3D5  A5 7B              LDA TXTPTR+1
02653  B3D7              .END
02654  B3D7              .LIB   CODE14


















CODE14......PAGE 0059

LINE# LOC   CODE        LINE


02656  B3D7  48                 PHA
02657  B3D8  A5 7A              LDA TXTPTR
02658  B3DA  48                 PHA
02659  B3DB  20 F8 A8           JSR DATA
02660  B3DE  4C 4F B4           JMP DEFFIN
02661  B3E1  A9 A5       GETFNM LDA #FNTK
02662  B3E3  20 FF AE           JSR SYNCHR
02663  B3E6  09 80              ORA #128
02664  B3E8  85 10              STA SUBFLG
02665  B3EA  20 92 B0           JSR PTRGT2
02666  B3ED  85 4E              STA DEFPNT
02667  B3EF  84 4F              STY DEFPNT+1
02668  B3F1  4C 8D AD           JMP CHKNUM
02669  B3F4  20 E1 B3    FNDOER JSR GETFNM
02670  B3F7  A5 4F              LDA DEFPNT+1
02671  B3F9  48                 PHA
02672  B3FA  A5 4E              LDA DEFPNT
02673  B3FC  48                 PHA
02674  B3FD  20 F1 AE           JSR PARCHK
02675  B400  20 8D AD           JSR CHKNUM
02676  B403  68                 PLA
02677  B404  85 4E              STA DEFPNT
02678  B406  68                 PLA
02679  B407  85 4F              STA DEFPNT+1
02680  B409  A0 02              LDY #2
02681  B40B  B1 4E              LDA (DEFPNT)Y
02682  B40D  85 47              STA VARPNT
02683  B40F  AA                 TAX
02684  B410  C8                 INY
02685  B411  B1 4E              LDA (DEFPNT)Y
02686  B413  F0 99              BEQ ERRGUF
02687  B415  85 48              STA VARPNT+1
02688  B417  C8                 INY
02689  B418  B1 47       DEFSTF LDA (VARPNT)Y
02690  B41A  48                 PHA
02691  B41B  88                 DEY
02692  B41C  10 FA              BPL DEFSTF
02693  B41E  A4 48              LDY VARPNT+1
02694  B420  20 D4 BB           JSR MOVMF
02695  B423  A5 7B              LDA TXTPTR+1
02696  B425  48                 PHA
02697  B426  A5 7A              LDA TXTPTR
02698  B428  48                 PHA
02699  B429  B1 4E              LDA (DEFPNT)Y
02700  B42B  85 7A              STA TXTPTR
02701  B42D  C8                 INY
02702  B42E  B1 4E              LDA (DEFPNT)Y
02703  B430  85 7B              STA TXTPTR+1
02704  B432  A5 48              LDA VARPNT+1
02705  B434  48                 PHA
02706  B435  A5 47              LDA VARPNT
02707  B437  48                 PHA
02708  B438  20 8A AD           JSR FRMNUM
02709  B43B  68                 PLA
02710  B43C  85 4E              STA DEFPNT






CODE14......PAGE 0060

LINE# LOC   CODE        LINE


02711  B43E  68                 PLA
02712  B43F  85 4F              STA DEFPNT+1
02713  B441  20 79 00           JSR CHRGOT
02714  B444  F0 03              BEQ *+5
02715  B446  4C 08 AF           JMP SNERR
02716  B449  68                 PLA
02717  B44A  85 7A              STA TXTPTR
02718  B44C  68                 PLA
02719  B44D  85 7B              STA TXTPTR+1
02720  B44F  A0 00       DEFFIN LDY #0
02721  B451  68                 PLA
02722  B452  91 4E              STA (DEFPNT)Y
02723  B454  68                 PLA
02724  B455  C8                 INY
02725  B456  91 4E              STA (DEFPNT)Y
02726  B458  68                 PLA
02727  B459  C8                 INY
02728  B45A  91 4E              STA (DEFPNT)Y
02729  B45C  68                 PLA
02730  B45D  C8                 INY
02731  B45E  91 4E              STA (DEFPNT)Y
02732  B460  68                 PLA
02733  B461  C8                 INY
02734  B462  91 4E              STA (DEFPNT)Y
02735  B464  60                 RTS
02736  B465  20 8D AD    STRD   JSR CHKNUM
02737  B468  A0 00              LDY #0
02738  B46A  20 DF BD           JSR FOUTC
02739  B46D  68                 PLA
02740  B46E  68                 PLA
02741  B46F  A9 FF       TIMSTR LDA #<LOFBUF
02742  B471  A0 00              LDY #>LOFBUF
02743  B473  F0 12              BEQ STRLIT
02744  B475  A6 64       STRINI LDX FACMO
02745  B477  A4 65              LDY FACMO+1
02746  B479  86 50              STX DSCPNT
02747  B47B  84 51              STY DSCPNT+1
02748  B47D  20 F4 B4    STRSPA JSR GETSPA
02749  B480  86 62              STX DSCTMP+1
02750  B482  84 63              STY DSCTMP+2
02751  B484  85 61              STA DSCTMP
02752  B486  60                 RTS
02753  B487  A2 22       STRLIT LDX #34
02754  B489  86 07              STX CHARAC
02755  B48B  86 08              STX ENDCHR
02756  B48D  85 6F       STRLT2 STA STRNG1
02757  B48F  84 70              STY STRNG1+1
02758  B491  85 62              STA DSCTMP+1
02759  B493  84 63              STY DSCTMP+2
02760  B495  A0 FF              LDY #255
02761  B497  C8          STRGET INY
02762  B498  B1 6F              LDA (STRNG1)Y
02763  B49A  F0 0C              BEQ STRFI1
02764  B49C  C5 07              CMP CHARAC
02765  B49E  F0 04              BEQ STRFIN






CODE14......PAGE 0061

LINE# LOC   CODE        LINE


02766  B4A0  C5 08              CMP ENDCHR
02767  B4A2  D0 F3              BNE STRGET
02768  B4A4  C9 22       STRFIN CMP #34
02769  B4A6  F0 01              BEQ STRFI2
02770  B4A8  18          STRFI1 CLC
02771  B4A9  84 61       STRFI2 STY DSCTMP
02772  B4AB  98                 TYA
02773  B4AC  65 6F              ADC STRNG1
02774  B4AE  85 71              STA STRNG2
02775  B4B0  A6 70              LDX STRNG1+1
02776  B4B2  90 01              BCC STRST2
02777  B4B4  E8                 INX
02778  B4B5  86 72       STRST2 STX STRNG2+1
02779  B4B7  A5 70              LDA STRNG1+1
02780  B4B9  F0 04              BEQ STRCP
02781  B4BB  C9 02              CMP #BUFPAG
02782  B4BD  D0 0B              BNE PUTNEW
02783  B4BF  98          STRCP  TYA
02784  B4C0  20 75 B4           JSR STRINI
02785  B4C3  A6 6F              LDX STRNG1
02786  B4C5  A4 70              LDY STRNG1+1
02787  B4C7  20 88 B6           JSR MOVSTR
02788  B4CA  A6 16       PUTNEW LDX TEMPPT
02789  B4CC  E0 22              CPX #TEMPST+STRSIZ+STRSIZ+STRSIZ
02790  B4CE  D0 05              BNE PUTNW1
02791  B4D0  A2 19              LDX #ERRST
02792  B4D2  4C 37 A4    ERRGO2 JMP ERROR
02793  B4D5  A5 61       PUTNW1 LDA DSCTMP
02794  B4D7  95 00              STA 0,X
02795  B4D9  A5 62              LDA DSCTMP+1
02796  B4DB  95 01              STA 1,X
02797  B4DD  A5 63              LDA DSCTMP+2
02798  B4DF  95 02              STA 2,X
02799  B4E1  A0 00              LDY #0
02800  B4E3  86 64              STX FACMO
02801  B4E5  84 65              STY FACMO+1
02802  B4E7  84 70              STY FACOV
02803  B4E9  88                 DEY
02804  B4EA  84 0D              STY VALTYP
02805  B4EC  86 17              STX LASTPT
02806  B4EE  E8                 INX
02807  B4EF  E8                 INX
02808  B4F0  E8                 INX
02809  B4F1  86 16              STX TEMPPT
02810  B4F3  60                 RTS
02811  B4F4  46 0F       GETSPA LSR GARBFL
02812  B4F6  48          TRYAG2 PHA
02813  B4F7  49 FF              EOR #255
02814  B4F9  38                 SEC
02815  B4FA  65 33              ADC FRETOP
02816  B4FC  A4 34              LDY FRETOP+1
02817  B4FE  B0 01              BCS TRYAG3
02818  B500  88                 DEY
02819  B501  C4 32       TRYAG3 CPY STREND+1
02820  B503  90 11              BCC GARBAG






CODE14......PAGE 0062

LINE# LOC   CODE        LINE


02821  B505  D0 04              BNE STRFRE
02822  B507  C5 31              CMP STREND
02823  B509  90 0B              BCC GARBAG
02824  B50B  85 33       STRFRE STA FRETOP
02825  B50D  84 34              STY FRETOP+1
02826  B50F  85 35              STA FRESPC
02827  B511  84 36              STY FRESPC+1
02828  B513  AA                 TAX
02829  B514  68                 PLA
02830  B515  60                 RTS
02831  B516  A2 10       GARBAG LDX #ERROM
02832  B518  A5 0F              LDA GARBFL
02833  B51A  30 B6              BMI ERRGO2
02834  B51C  20 26 B5           JSR GARBA2
02835  B51F  A9 80              LDA #128
02836  B521  85 0F              STA GARBFL
02837  B523  68                 PLA
02838  B524  D0 D0              BNE TRYAG2
02839  B526  A6 37       GARBA2 LDX MEMSIZ
02840  B528  A5 38              LDA MEMSIZ+1
02841  B52A  86 33       FNDVAR STX FRETOP
02842  B52C  85 34              STA FRETOP+1
02843  B52E  A0 00              LDY #0
02844  B530  84 4F              STY GRBPNT+1
02845  B532  84 4E              STY GRBPNT
02846  B534  A5 31              LDA STREND
02847  B536  A6 32              LDX STREND+1
02848  B538  85 5F              STA GRBTOP
02849  B53A  86 60              STX GRBTOP+1
02850  B53C  A9 19              LDA #<TEMPST
02851  B53E  A2 00              LDX #>TEMPST
02852  B540  85 22              STA INDEX1
02853  B542  86 23              STX INDEX1+1
02854  B544  C5 16       TVAR   CMP TEMPPT
02855  B546  F0 05              BEQ SVARS
02856  B548  20 C7 B5           JSR DVAR
02857  B54B  F0 F7              BEQ TVAR
02858  B54D  A9 07       SVARS  LDA #6+ADDPRC
02859  B54F  85 53              STA FOUR6
02860  B551  A5 2D              LDA VARTAB
02861  B553  A6 2E              LDX VARTAB+1
02862  B555              .END
02863  B555              .LIB   CODE15


















CODE15......PAGE 0063

LINE# LOC   CODE        LINE


02865  B555  85 22              STA INDEX1
02866  B557  86 23              STX INDEX1+1
02867  B559  E4 30       SVAR   CPX ARYTAB+1
02868  B55B  D0 04              BNE SVARGO
02869  B55D  C5 2F              CMP ARYTAB
02870  B55F  F0 05              BEQ ARYVAR
02871  B561  20 BD B5    SVARGO JSR DVARS
02872  B564  F0 F3              BEQ SVAR
02873  B566  85 58       ARYVAR STA ARYPNT
02874  B568  86 59              STX ARYPNT+1
02875  B56A  A9 03              LDA #STRSIZ
02876  B56C  85 53              STA FOUR6
02877  B56E  A5 58       ARYVA2 LDA ARYPNT
02878  B570  A6 59              LDX ARYPNT+1
02879  B572  E4 32       ARYVA3 CPX STREND+1
02880  B574  D0 07              BNE ARYVGO
02881  B576  C5 31              CMP STREND
02882  B578  D0 03              BNE *+5
02883  B57A  4C 06 B6           JMP GRBPAS
02884  B57D  85 22       ARYVGO STA INDEX1
02885  B57F  86 23              STX INDEX1+1
02886  B581  A0 00              LDY #1-ADDPRC
02887  B583  B1 22              LDA (INDEX1)Y
02888  B585  AA                 TAX
02889  B586  C8                 INY
02890  B587  B1 22              LDA (INDEX1)Y
02891  B589  08                 PHP
02892  B58A  C8                 INY
02893  B58B  B1 22              LDA (INDEX1)Y
02894  B58D  65 58              ADC ARYPNT
02895  B58F  85 58              STA ARYPNT
02896  B591  C8                 INY
02897  B592  B1 22              LDA (INDEX1)Y
02898  B594  65 59              ADC ARYPNT+1
02899  B596  85 59              STA ARYPNT+1
02900  B598  28                 PLP
02901  B599  10 D3              BPL ARYVA2
02902  B59B  8A                 TXA
02903  B59C  30 D0              BMI ARYVA2
02904  B59E  C8                 INY
02905  B59F  B1 22              LDA (INDEX1)Y
02906  B5A1  A0 00              LDY #0
02907  B5A3  0A                 ASL A
02908  B5A4  69 05              ADC #5
02909  B5A6  65 22              ADC INDEX1
02910  B5A8  85 22              STA INDEX1
02911  B5AA  90 02              BCC ARYGET
02912  B5AC  E6 23              INC INDEX1+1
02913  B5AE  A6 23       ARYGET LDX INDEX1+1
02914  B5B0  E4 59       ARYSTR CPX ARYPNT+1
02915  B5B2  D0 04              BNE GOGO
02916  B5B4  C5 58              CMP ARYPNT
02917  B5B6  F0 BA              BEQ ARYVA3
02918  B5B8  20 C7 B5    GOGO   JSR DVAR
02919  B5BB  F0 F3              BEQ ARYSTR






CODE15......PAGE 0064

LINE# LOC   CODE        LINE


02920  B5BD  B1 22       DVARS  LDA (INDEX1)Y
02921  B5BF  30 35              BMI DVARTS
02922  B5C1  C8                 INY
02923  B5C2  B1 22              LDA (INDEX1)Y
02924  B5C4  10 30              BPL DVARTS
02925  B5C6  C8                 INY
02926  B5C7  B1 22       DVAR   LDA (INDEX1)Y
02927  B5C9  F0 2B              BEQ DVARTS
02928  B5CB  C8                 INY
02929  B5CC  B1 22              LDA (INDEX1)Y
02930  B5CE  AA                 TAX
02931  B5CF  C8                 INY
02932  B5D0  B1 22              LDA (INDEX1)Y
02933  B5D2  C5 34              CMP FRETOP+1
02934  B5D4  90 06              BCC DVAR2
02935  B5D6  D0 1E              BNE DVARTS
02936  B5D8  E4 33              CPX FRETOP
02937  B5DA  B0 1A              BCS DVARTS
02938  B5DC  C5 60       DVAR2  CMP GRBTOP+1
02939  B5DE  90 16              BCC DVARTS
02940  B5E0  D0 04              BNE DVAR3
02941  B5E2  E4 5F              CPX GRBTOP
02942  B5E4  90 10              BCC DVARTS
02943  B5E6  86 5F       DVAR3  STX GRBTOP
02944  B5E8  85 60              STA GRBTOP+1
02945  B5EA  A5 22              LDA INDEX1
02946  B5EC  A6 23              LDX INDEX1+1
02947  B5EE  85 4E              STA GRBPNT
02948  B5F0  86 4F              STX GRBPNT+1
02949  B5F2  A5 53              LDA FOUR6
02950  B5F4  85 55              STA SIZE
02951  B5F6  A5 53       DVARTS LDA FOUR6
02952  B5F8  18                 CLC
02953  B5F9  65 22              ADC INDEX1
02954  B5FB  85 22              STA INDEX1
02955  B5FD  90 02              BCC GRBRTS
02956  B5FF  E6 23              INC INDEX1+1
02957  B601  A6 23       GRBRTS LDX INDEX1+1
02958  B603  A0 00              LDY #0
02959  B605  60                 RTS
02960  B606  A5 4F       GRBPAS LDA GRBPNT+1
02961  B608  05 4E              ORA GRBPNT
02962  B60A  F0 F5              BEQ GRBRTS
02963  B60C  A5 55              LDA SIZE
02964  B60E  29 04              AND #4
02965  B610  4A                 LSR A
02966  B611  A8                 TAY
02967  B612  85 55              STA SIZE
02968  B614  B1 4E              LDA (GRBPNT)Y
02969  B616  65 5F              ADC LOWTR
02970  B618  85 5A              STA HIGHTR
02971  B61A  A5 60              LDA LOWTR+1
02972  B61C  69 00              ADC #0
02973  B61E  85 5B              STA HIGHTR+1
02974  B620  A5 33              LDA FRETOP






CODE15......PAGE 0065

LINE# LOC   CODE        LINE


02975  B622  A6 34              LDX FRETOP+1
02976  B624  85 58              STA HIGHDS
02977  B626  86 59              STX HIGHDS+1
02978  B628  20 BF A3           JSR BLTUC
02979  B62B  A4 55              LDY SIZE
02980  B62D  C8                 INY
02981  B62E  A5 58              LDA HIGHDS
02982  B630  91 4E              STA (GRBPNT)Y
02983  B632  AA                 TAX
02984  B633  E6 59              INC HIGHDS+1
02985  B635  A5 59              LDA HIGHDS+1
02986  B637  C8                 INY
02987  B638  91 4E              STA (GRBPNT)Y
02988  B63A  4C 2A B5           JMP FNDVAR
02989  B63D  A5 65       CAT    LDA FACLO
02990  B63F  48                 PHA
02991  B640  A5 64              LDA FACMO
02992  B642  48                 PHA
02993  B643  20 83 AE           JSR EVAL
02994  B646  20 8F AD           JSR CHKSTR
02995  B649  68                 PLA
02996  B64A  85 6F              STA STRNG1
02997  B64C  68                 PLA
02998  B64D  85 70              STA STRNG1+1
02999  B64F  A0 00              LDY #0
03000  B651  B1 6F              LDA (STRNG1)Y
03001  B653  18                 CLC
03002  B654  71 64              ADC (FACMO)Y
03003  B656  90 05              BCC SIZEOK
03004  B658  A2 17              LDX #ERRLS
03005  B65A  4C 37 A4           JMP ERROR
03006  B65D  20 75 B4    SIZEOK JSR STRINI
03007  B660  20 7A B6           JSR MOVINS
03008  B663  A5 50              LDA DSCPNT
03009  B665  A4 51              LDY DSCPNT+1
03010  B667  20 AA B6           JSR FRETMP
03011  B66A  20 8C B6           JSR MOVDO
03012  B66D  A5 6F              LDA STRNG1
03013  B66F  A4 70              LDY STRNG1+1
03014  B671  20 AA B6           JSR FRETMP
03015  B674  20 CA B4           JSR PUTNEW
03016  B677  4C B8 AD           JMP TSTOP
03017  B67A  A0 00       MOVINS LDY #0
03018  B67C  B1 6F              LDA (STRNG1)Y
03019  B67E  48                 PHA
03020  B67F  C8                 INY
03021  B680              .END
03022  B680              .LIB   CODE16













CODE16......PAGE 0066

LINE# LOC   CODE        LINE


03024  B680  B1 6F              LDA (STRNG1)Y
03025  B682  AA                 TAX
03026  B683  C8                 INY
03027  B684  B1 6F              LDA (STRNG1)Y
03028  B686  A8                 TAY
03029  B687  68                 PLA
03030  B688  86 22       MOVSTR STX INDEX
03031  B68A  84 23              STY INDEX+1
03032  B68C  A8          MOVDO  TAY
03033  B68D  F0 0A              BEQ MVDONE
03034  B68F  48                 PHA
03035  B690  88          MOVLP  DEY
03036  B691  B1 22              LDA (INDEX)Y
03037  B693  91 35              STA (FRESPC)Y
03038  B695  98                 TYA
03039  B696  D0 F8              BNE MOVLP
03040  B698  68                 PLA
03041  B699  18          MVDONE CLC
03042  B69A  65 35              ADC FRESPC
03043  B69C  85 35              STA FRESPC
03044  B69E  90 02              BCC MVSTRT
03045  B6A0  E6 36              INC FRESPC+1
03046  B6A2  60          MVSTRT RTS
03047  B6A3  20 8F AD    FRESTR JSR CHKSTR
03048  B6A6  A5 64       FREFAC LDA FACMO
03049  B6A8  A4 65              LDY FACMO+1
03050  B6AA  85 22       FRETMP STA INDEX
03051  B6AC  84 23              STY INDEX+1
03052  B6AE  20 DB B6           JSR FRETMS
03053  B6B1  08                 PHP
03054  B6B2  A0 00              LDY #0
03055  B6B4  B1 22              LDA (INDEX)Y
03056  B6B6  48                 PHA
03057  B6B7  C8                 INY
03058  B6B8  B1 22              LDA (INDEX)Y
03059  B6BA  AA                 TAX
03060  B6BB  C8                 INY
03061  B6BC  B1 22              LDA (INDEX)Y
03062  B6BE  A8                 TAY
03063  B6BF  68                 PLA
03064  B6C0  28                 PLP
03065  B6C1  D0 13              BNE FRETRT
03066  B6C3  C4 34              CPY FRETOP+1
03067  B6C5  D0 0F              BNE FRETRT
03068  B6C7  E4 33              CPX FRETOP
03069  B6C9  D0 0B              BNE FRETRT
03070  B6CB  48                 PHA
03071  B6CC  18                 CLC
03072  B6CD  65 33              ADC FRETOP
03073  B6CF  85 33              STA FRETOP
03074  B6D1  90 02              BCC FREPLA
03075  B6D3  E6 34              INC FRETOP+1
03076  B6D5  68          FREPLA PLA
03077  B6D6  86 22       FRETRT STX INDEX
03078  B6D8  84 23              STY INDEX+1






CODE16......PAGE 0067

LINE# LOC   CODE        LINE


03079  B6DA  60                 RTS
03080  B6DB  C4 18       FRETMS CPY LASTPT+1
03081  B6DD  D0 0C              BNE FRERTS
03082  B6DF  C5 17              CMP LASTPT
03083  B6E1  D0 08              BNE FRERTS
03084  B6E3  85 16              STA TEMPPT
03085  B6E5  E9 03              SBC #STRSIZ
03086  B6E7  85 17              STA LASTPT
03087  B6E9  A0 00              LDY #0
03088  B6EB  60          FRERTS RTS
03089  B6EC  20 A1 B7    CHRD   JSR CONINT
03090  B6EF  8A                 TXA
03091  B6F0  48                 PHA
03092  B6F1  A9 01              LDA #1
03093  B6F3  20 7D B4           JSR STRSPA
03094  B6F6  68                 PLA
03095  B6F7  A0 00              LDY #0
03096  B6F9  91 62              STA (DSCTMP+1)Y
03097  B6FB  68                 PLA
03098  B6FC  68                 PLA
03099  B6FD  4C CA B4           JMP PUTNEW
03100  B700  20 61 B7    LEFTD  JSR PREAM
03101  B703  D1 50              CMP (DSCPNT)Y
03102  B705  98                 TYA
03103  B706  90 04       RLEFT  BCC RLEFT1
03104  B708  B1 50              LDA (DSCPNT)Y
03105  B70A  AA                 TAX
03106  B70B  98                 TYA
03107  B70C  48          RLEFT1 PHA
03108  B70D  8A          RLEFT2 TXA
03109  B70E  48          RLEFT3 PHA
03110  B70F  20 7D B4           JSR STRSPA
03111  B712  A5 50              LDA DSCPNT
03112  B714  A4 51              LDY DSCPNT+1
03113  B716  20 AA B6           JSR FRETMP
03114  B719  68                 PLA
03115  B71A  A8                 TAY
03116  B71B  68                 PLA
03117  B71C  18                 CLC
03118  B71D  65 22              ADC INDEX
03119  B71F  85 22              STA INDEX
03120  B721  90 02              BCC PULMOR
03121  B723  E6 23              INC INDEX+1
03122  B725  98          PULMOR TYA
03123  B726  20 8C B6           JSR MOVDO
03124  B729  4C CA B4           JMP PUTNEW
03125  B72C  20 61 B7    RIGHTD JSR PREAM
03126  B72F  18                 CLC
03127  B730  F1 50              SBC (DSCPNT)Y
03128  B732  49 FF              EOR #255
03129  B734  4C 06 B7           JMP RLEFT
03130  B737  A9 FF       MIDD   LDA #255
03131  B739  85 65              STA FACLO
03132  B73B  20 79 00           JSR CHRGOT
03133  B73E  C9 29              CMP #41






CODE16......PAGE 0068

LINE# LOC   CODE        LINE


03134  B740  F0 06              BEQ MID2
03135  B742  20 FD AE           JSR CHKCOM
03136  B745  20 9E B7           JSR GETBYT
03137  B748  20 61 B7    MID2   JSR PREAM
03138  B74B  F0 4B              BEQ GOFUC
03139  B74D  CA                 DEX
03140  B74E  8A                 TXA
03141  B74F  48                 PHA
03142  B750  18                 CLC
03143  B751  A2 00              LDX #0
03144  B753  F1 50              SBC (DSCPNT)Y
03145  B755  B0 B6              BCS RLEFT2
03146  B757  49 FF              EOR #255
03147  B759  C5 65              CMP FACLO
03148  B75B  90 B1              BCC RLEFT3
03149  B75D  A5 65              LDA FACLO
03150  B75F  B0 AD              BCS RLEFT3
03151  B761  20 F7 AE    PREAM  JSR CHKCLS
03152  B764  68                 PLA
03153  B765  A8                 TAY
03154  B766  68                 PLA
03155  B767  85 55              STA JMPER+1
03156  B769  68                 PLA
03157  B76A  68                 PLA
03158  B76B  68                 PLA
03159  B76C  AA                 TAX
03160  B76D  68                 PLA
03161  B76E  85 50              STA DSCPNT
03162  B770  68                 PLA
03163  B771  85 51              STA DSCPNT+1
03164  B773  A5 55              LDA JMPER+1
03165  B775  48                 PHA
03166  B776  98                 TYA
03167  B777  48                 PHA
03168  B778  A0 00              LDY #0
03169  B77A  8A                 TXA
03170  B77B  60                 RTS
03171  B77C  20 82 B7    LEN    JSR LEN1
03172  B77F  4C A2 B3           JMP SNGFLT
03173  B782  20 A3 B6    LEN1   JSR FRESTR
03174  B785  A2 00              LDX #0
03175  B787  86 0D              STX VALTYP
03176  B789  A8                 TAY
03177  B78A  60                 RTS
03178  B78B  20 82 B7    ASC    JSR LEN1
03179  B78E  F0 08              BEQ GOFUC
03180  B790  A0 00              LDY #0
03181  B792  B1 22              LDA (INDEX1)Y
03182  B794  A8                 TAY
03183  B795  4C A2 B3           JMP SNGFLT
03184  B798  4C 48 B2    GOFUC  JMP FCERR
03185  B79B  20 73 00    GTBYTC JSR CHRGET
03186  B79E              .END
03187  B79E              .LIB   CODE17







CODE17......PAGE 0069

LINE# LOC   CODE        LINE


03189  B79E  20 8A AD    GETBYT JSR FRMNUM
03190  B7A1  20 B8 B1    CONINT JSR POSINT
03191  B7A4  A6 64              LDX FACMO
03192  B7A6  D0 F0              BNE GOFUC
03193  B7A8  A6 65              LDX FACLO
03194  B7AA  4C 79 00           JMP CHRGOT
03195  B7AD  20 82 B7    VAL    JSR LEN1
03196  B7B0  D0 03              BNE *+5
03197  B7B2  4C F7 B8           JMP ZEROFC
03198  B7B5  A6 7A              LDX TXTPTR
03199  B7B7  A4 7B              LDY TXTPTR+1
03200  B7B9  86 71              STX STRNG2
03201  B7BB  84 72              STY STRNG2+1
03202  B7BD  A6 22              LDX INDEX1
03203  B7BF  86 7A              STX TXTPTR
03204  B7C1  18                 CLC
03205  B7C2  65 22              ADC INDEX1
03206  B7C4  85 24              STA INDEX2
03207  B7C6  A6 23              LDX INDEX1+1
03208  B7C8  86 7B              STX TXTPTR+1
03209  B7CA  90 01              BCC VAL2
03210  B7CC  E8                 INX
03211  B7CD  86 25       VAL2   STX INDEX2+1
03212  B7CF  A0 00              LDY #0
03213  B7D1  B1 24              LDA (INDEX2)Y
03214  B7D3  48                 PHA
03215  B7D4  98                 TYA             ;A=0
03216  B7D5  91 24              STA (INDEX2)Y
03217  B7D7  20 79 00           JSR CHRGOT
03218  B7DA  20 F3 BC           JSR FIN
03219  B7DD  68                 PLA
03220  B7DE  A0 00              LDY #0
03221  B7E0  91 24              STA (INDEX2)Y
03222  B7E2  A6 71       ST2TXT LDX STRNG2
03223  B7E4  A4 72              LDY STRNG2+1
03224  B7E6  86 7A              STX TXTPTR
03225  B7E8  84 7B              STY TXTPTR+1
03226  B7EA  60          VALRTS RTS
03227  B7EB  20 8A AD    GETNUM JSR FRMNUM
03228  B7EE  20 F7 B7           JSR GETADR
03229  B7F1  20 FD AE    COMBYT JSR CHKCOM
03230  B7F4  4C 9E B7           JMP GETBYT
03231  B7F7  A5 66       GETADR LDA FACSGN
03232  B7F9  30 9D              BMI GOFUC
03233  B7FB  A5 61              LDA FACEXP
03234  B7FD  C9 91              CMP #145
03235  B7FF  B0 97              BCS GOFUC
03236  B801  20 9B BC           JSR QINT
03237  B804  A5 64              LDA FACMO
03238  B806  A4 65              LDY FACMO+1
03239  B808  84 14              STY POKER
03240  B80A  85 15              STA POKER+1
03241  B80C  60                 RTS
03242  B80D  A5 15       PEEK   LDA POKER+1
03243  B80F  48                 PHA






CODE17......PAGE 0070

LINE# LOC   CODE        LINE


03244  B810  A5 14              LDA POKER
03245  B812  48                 PHA
03246  B813  20 F7 B7           JSR GETADR
03247  B816  A0 00              LDY #0
03248  B818  B1 14       GETCON LDA (POKER)Y
03249  B81A  A8                 TAY
03250  B81B  68          DOSGFL PLA
03251  B81C  85 14              STA POKER
03252  B81E  68                 PLA
03253  B81F  85 15              STA POKER+1
03254  B821  4C A2 B3           JMP SNGFLT
03255  B824  20 EB B7    POKE   JSR GETNUM
03256  B827  8A                 TXA
03257  B828  A0 00              LDY #0
03258  B82A  91 14              STA (POKER)Y
03259  B82C  60                 RTS
03260  B82D  20 EB B7    FNWAIT JSR GETNUM
03261  B830  86 49              STX ANDMSK
03262  B832  A2 00              LDX #0
03263  B834  20 79 00           JSR CHRGOT
03264  B837  F0 03              BEQ STORDO
03265  B839  20 F1 B7           JSR COMBYT
03266  B83C  86 4A       STORDO STX EORMSK
03267  B83E  A0 00              LDY #0
03268  B840  B1 14       WAITER LDA (POKER)Y
03269  B842  45 4A              EOR EORMSK
03270  B844  25 49              AND ANDMSK
03271  B846  F0 F8              BEQ WAITER
03272  B848  60          ZERRTS RTS
03273  B849  A9 11       FADDH  LDA #<FHALF
03274  B84B  A0 BF              LDY #>FHALF
03275  B84D  4C 67 B8           JMP FADD
03276  B850  20 8C BA    FSUB   JSR CONUPK
03277  B853  A5 66       FSUBT  LDA FACSGN
03278  B855  49 FF              EOR #@377
03279  B857  85 66              STA FACSGN
03280  B859  45 6E              EOR ARGSGN
03281  B85B  85 6F              STA ARISGN
03282  B85D  A5 61              LDA FACEXP
03283  B85F  4C 6A B8           JMP FADDT
03284  B862  20 99 B9    FADD5  JSR SHIFTR
03285  B865  90 3C              BCC FADD4
03286  B867  20 8C BA    FADD   JSR CONUPK
03287  B86A  D0 03       FADDT  BNE *+5
03288  B86C  4C FC BB           JMP MOVFA
03289  B86F  A6 70              LDX FACOV
03290  B871  86 56              STX OLDOV
03291  B873  A2 69              LDX #ARGEXP
03292  B875  A5 69              LDA ARGEXP
03293  B877  A8          FADDC  TAY
03294  B878  F0 CE              BEQ ZERRTS
03295  B87A  38                 SEC
03296  B87B  E5 61              SBC FACEXP
03297  B87D  F0 24              BEQ FADD4
03298  B87F  90 12              BCC FADDA






CODE17......PAGE 0071

LINE# LOC   CODE        LINE


03299  B881  84 61              STY FACEXP
03300  B883  A4 6E              LDY ARGSGN
03301  B885  84 66              STY FACSGN
03302  B887  49 FF              EOR #@377
03303  B889  69 00              ADC #0
03304  B88B  A0 00              LDY #0
03305  B88D  84 56              STY OLDOV
03306  B88F  A2 61              LDX #FAC
03307  B891  D0 04              BNE FADD1
03308  B893  A0 00       FADDA  LDY #0
03309  B895  84 70              STY FACOV
03310  B897  C9 F9       FADD1  CMP #$F9
03311  B899  30 C7              BMI FADD5
03312  B89B  A8                 TAY
03313  B89C  A5 70              LDA FACOV
03314  B89E  56 01              LSR 1,X
03315  B8A0  20 B0 B9           JSR ROLSHF
03316  B8A3  24 6F       FADD4  BIT ARISGN
03317  B8A5  10 57              BPL FADD2
03318  B8A7  A0 61              LDY #FACEXP
03319  B8A9  E0 69              CPX #ARGEXP
03320  B8AB  F0 02              BEQ SUBIT
03321  B8AD  A0 69              LDY #ARGEXP
03322  B8AF  38          SUBIT  SEC
03323  B8B0  49 FF              EOR #@377
03324  B8B2  65 56              ADC OLDOV
03325  B8B4  85 70              STA FACOV
03326  B8B6  B9 04 00           LDA 3+ADDPRC,Y
03327  B8B9  F5 04              SBC 3+ADDPRC,X
03328  B8BB  85 65              STA FACLO
03329  B8BD  B9 03 00           LDA ADDPRC+2,Y
03330  B8C0  F5 03              SBC 2+ADDPRC,X
03331  B8C2  85 64              STA FACMO
03332  B8C4  B9 02 00           LDA 2,Y
03333  B8C7  F5 02              SBC 2,X
03334  B8C9  85 63              STA FACMOH
03335  B8CB  B9 01 00           LDA 1,Y
03336  B8CE  F5 01              SBC 1,X
03337  B8D0  85 62              STA FACHO
03338  B8D2  B0 03       FADFLT BCS NORMAL
03339  B8D4  20 47 B9           JSR NEGFAC
03340  B8D7  A0 00       NORMAL LDY #0
03341  B8D9  98                 TYA
03342  B8DA  18                 CLC
03343  B8DB  A6 62       NORM3  LDX FACHO
03344  B8DD  D0 4A              BNE NORM1
03345  B8DF  A6 63              LDX FACHO+1
03346  B8E1  86 62              STX FACHO
03347  B8E3  A6 64              LDX FACMOH+1
03348  B8E5              .END
03349  B8E5              .LIB   CODE18










CODE18......PAGE 0072

LINE# LOC   CODE        LINE


03351  B8E5  86 63              STX FACMOH
03352  B8E7  A6 65              LDX FACMO+1
03353  B8E9  86 64              STX FACMO
03354  B8EB  A6 70              LDX FACOV
03355  B8ED  86 65              STX FACLO
03356  B8EF  84 70              STY FACOV
03357  B8F1  69 08              ADC #@10
03358  B8F3              ADDPR2 =ADDPRC+ADDPRC
03359  B8F3              ADDPR4 =ADDPR2+ADDPR2
03360  B8F3              ADDPR8 =ADDPR4+ADDPR4
03361  B8F3  C9 20              CMP #@30+ADDPR8
03362  B8F5  D0 E4              BNE NORM3
03363  B8F7  A9 00       ZEROFC LDA #0
03364  B8F9  85 61       ZEROF1 STA FACEXP
03365  B8FB  85 66       ZEROML STA FACSGN
03366  B8FD  60                 RTS
03367  B8FE  65 56       FADD2  ADC OLDOV
03368  B900  85 70              STA FACOV
03369  B902  A5 65              LDA FACLO
03370  B904  65 6D              ADC ARGLO
03371  B906  85 65              STA FACLO
03372  B908  A5 64              LDA FACMO
03373  B90A  65 6C              ADC ARGMO
03374  B90C  85 64              STA FACMO
03375  B90E  A5 63              LDA FACMOH
03376  B910  65 6B              ADC ARGMOH
03377  B912  85 63              STA FACMOH
03378  B914  A5 62              LDA FACHO
03379  B916  65 6A              ADC ARGHO
03380  B918  85 62              STA FACHO
03381  B91A  4C 36 B9           JMP SQUEEZ
03382  B91D  69 01       NORM2  ADC #1
03383  B91F  06 70              ASL FACOV
03384  B921  26 65              ROL FACLO
03385  B923  26 64              ROL FACMO
03386  B925  26 63              ROL FACMOH
03387  B927  26 62              ROL FACHO
03388  B929  10 F2       NORM1  BPL NORM2
03389  B92B  38                 SEC
03390  B92C  E5 61              SBC FACEXP
03391  B92E  B0 C7              BCS ZEROFC
03392  B930  49 FF              EOR #@377
03393  B932  69 01              ADC #1
03394  B934  85 61              STA FACEXP
03395  B936  90 0E       SQUEEZ BCC RNDRTS
03396  B938  E6 61       RNDSHF INC FACEXP
03397  B93A  F0 42              BEQ OVERR
03398  B93C  66 62              ROR FACHO
03399  B93E  66 63              ROR FACMOH
03400  B940  66 64              ROR FACMO
03401  B942  66 65              ROR FACLO
03402  B944  66 70              ROR FACOV
03403  B946  60          RNDRTS RTS
03404  B947  A5 66       NEGFAC LDA FACSGN
03405  B949  49 FF              EOR #@377






CODE18......PAGE 0073

LINE# LOC   CODE        LINE


03406  B94B  85 66              STA FACSGN
03407  B94D  A5 62       NEGFCH LDA FACHO
03408  B94F  49 FF              EOR #@377
03409  B951  85 62              STA FACHO
03410  B953  A5 63              LDA FACMOH
03411  B955  49 FF              EOR #@377
03412  B957  85 63              STA FACMOH
03413  B959  A5 64              LDA FACMO
03414  B95B  49 FF              EOR #@377
03415  B95D  85 64              STA FACMO
03416  B95F  A5 65              LDA FACLO
03417  B961  49 FF              EOR #@377
03418  B963  85 65              STA FACLO
03419  B965  A5 70              LDA FACOV
03420  B967  49 FF              EOR #@377
03421  B969  85 70              STA FACOV
03422  B96B  E6 70              INC FACOV
03423  B96D  D0 0E              BNE INCFRT
03424  B96F  E6 65       INCFAC INC FACLO
03425  B971  D0 0A              BNE INCFRT
03426  B973  E6 64              INC FACMO
03427  B975  D0 06              BNE INCFRT
03428  B977  E6 63              INC FACMOH
03429  B979  D0 02              BNE INCFRT
03430  B97B  E6 62              INC FACHO
03431  B97D  60          INCFRT RTS
03432  B97E  A2 0F       OVERR  LDX #ERROV
03433  B980  4C 37 A4           JMP ERROR
03434  B983  A2 25       MULSHF LDX #RESHO-1
03435  B985  B4 04       SHFTR2 LDY 3+ADDPRC,X
03436  B987  84 70              STY FACOV
03437  B989  B4 03              LDY 3,X
03438  B98B  94 04              STY 4,X
03439  B98D  B4 02              LDY 2,X
03440  B98F  94 03              STY 3,X
03441  B991  B4 01              LDY 1,X
03442  B993  94 02              STY 2,X
03443  B995  A4 68              LDY BITS
03444  B997  94 01              STY 1,X
03445  B999  69 08       SHIFTR ADC #@10
03446  B99B  30 E8              BMI SHFTR2
03447  B99D  F0 E6              BEQ SHFTR2
03448  B99F  E9 08              SBC #@10
03449  B9A1  A8                 TAY
03450  B9A2  A5 70              LDA FACOV
03451  B9A4  B0 14              BCS SHFTRT
03452  B9A6  16 01       SHFTR3 ASL 1,X
03453  B9A8  90 02              BCC SHFTR4
03454  B9AA  F6 01              INC 1,X
03455  B9AC  76 01       SHFTR4 ROR 1,X
03456  B9AE  76 01              ROR 1,X
03457  B9B0  76 02       ROLSHF ROR 2,X
03458  B9B2  76 03              ROR 3,X
03459  B9B4  76 04              ROR 4,X
03460  B9B6  6A                 ROR A






CODE18......PAGE 0074

LINE# LOC   CODE        LINE


03461  B9B7  C8                 INY
03462  B9B8  D0 EC              BNE SHFTR3
03463  B9BA  18          SHFTRT CLC
03464  B9BB  60                 RTS
03465  B9BC  81          FONE   .BYT @201,0,0,0,0
03465  B9BD  00 
03465  B9BE  00 
03465  B9BF  00 
03465  B9C0  00 
03466  B9C1  03          LOGCN2 .BYT 3,@177,@136,@126
03466  B9C2  7F 
03466  B9C3  5E 
03466  B9C4  56 
03467  B9C5  CB                 .BYT @313,@171,@200,@23
03467  B9C6  79 
03467  B9C7  80 
03467  B9C8  13 
03468  B9C9  9B                 .BYT @233,@13,@144,@200
03468  B9CA  0B 
03468  B9CB  64 
03468  B9CC  80 
03469  B9CD  76                 .BYT @166,@70,@223,@26
03469  B9CE  38 
03469  B9CF  93 
03469  B9D0  16 
03470  B9D1  82                 .BYT @202,@70,@252,@73,@40
03470  B9D2  38 
03470  B9D3  AA 
03470  B9D4  3B 
03470  B9D5  20 
03471  B9D6  80          SQR05  .BYT @200,@65,4,@363,@64
03471  B9D7  35 
03471  B9D8  04 
03471  B9D9  F3 
03471  B9DA  34 
03472  B9DB  81          SQR20  .BYT @201,@65,@4,@363,@64
03472  B9DC  35 
03472  B9DD  04 
03472  B9DE  F3 
03472  B9DF  34 
03473  B9E0  80          NEGHLF .BYT @200,@200,0,0,0
03473  B9E1  80 
03473  B9E2  00 
03473  B9E3  00 
03473  B9E4  00 
03474  B9E5  80          LOG2   .BYT @200,@61,@162,@27,@370
03474  B9E6  31 
03474  B9E7  72 
03474  B9E8  17 
03474  B9E9  F8 
03475  B9EA              .END
03476  B9EA              .LIB   CODE19









CODE19......PAGE 0075

LINE# LOC   CODE        LINE


03478  B9EA  20 2B BC    LOG    JSR SIGN
03479  B9ED  F0 02              BEQ LOGERR
03480  B9EF  10 03              BPL LOG1
03481  B9F1  4C 48 B2    LOGERR JMP FCERR
03482  B9F4  A5 61       LOG1   LDA FACEXP
03483  B9F6  E9 7F              SBC #@177
03484  B9F8  48                 PHA
03485  B9F9  A9 80              LDA #@200
03486  B9FB  85 61              STA FACEXP
03487  B9FD  A9 D6              LDA #<SQR05
03488  B9FF  A0 B9              LDY #>SQR05
03489  BA01  20 67 B8           JSR FADD
03490  BA04  A9 DB              LDA #<SQR20
03491  BA06  A0 B9              LDY #>SQR20
03492  BA08  20 0F BB           JSR FDIV
03493  BA0B  A9 BC              LDA #<FONE
03494  BA0D  A0 B9              LDY #>FONE
03495  BA0F  20 50 B8           JSR FSUB
03496  BA12  A9 C1              LDA #<LOGCN2
03497  BA14  A0 B9              LDY #>LOGCN2
03498  BA16  20 43 E0           JSR POLYX
03499  BA19  A9 E0              LDA #<NEGHLF
03500  BA1B  A0 B9              LDY #>NEGHLF
03501  BA1D  20 67 B8           JSR FADD
03502  BA20  68                 PLA
03503  BA21  20 7E BD           JSR FINLOG
03504  BA24  A9 E5              LDA #<LOG2
03505  BA26  A0 B9              LDY #>LOG2
03506  BA28  20 8C BA    FMULT  JSR CONUPK
03507  BA2B  D0 03       FMULTT BNE *+5
03508  BA2D  4C 8B BA           JMP MULTRT
03509  BA30  20 B7 BA           JSR MULDIV
03510  BA33  A9 00              LDA #0
03511  BA35  85 26              STA RESHO
03512  BA37  85 27              STA RESMOH
03513  BA39  85 28              STA RESMO
03514  BA3B  85 29              STA RESLO
03515  BA3D  A5 70              LDA FACOV
03516  BA3F  20 59 BA           JSR MLTPLY
03517  BA42  A5 65              LDA FACLO
03518  BA44  20 59 BA           JSR MLTPLY
03519  BA47  A5 64              LDA FACMO
03520  BA49  20 59 BA           JSR MLTPLY
03521  BA4C  A5 63              LDA FACMOH
03522  BA4E  20 59 BA           JSR MLTPLY
03523  BA51  A5 62              LDA FACHO
03524  BA53  20 5E BA           JSR MLTPL1
03525  BA56  4C 8F BB           JMP MOVFR
03526  BA59  D0 03       MLTPLY BNE *+5
03527  BA5B  4C 83 B9           JMP MULSHF
03528  BA5E  4A          MLTPL1 LSR A
03529  BA5F  09 80              ORA #@200
03530  BA61  A8          MLTPL2 TAY
03531  BA62  90 19              BCC MLTPL3
03532  BA64  18                 CLC






CODE19......PAGE 0076

LINE# LOC   CODE        LINE


03533  BA65  A5 29              LDA RESLO
03534  BA67  65 6D              ADC ARGLO
03535  BA69  85 29              STA RESLO
03536  BA6B  A5 28              LDA RESMO
03537  BA6D  65 6C              ADC ARGMO
03538  BA6F  85 28              STA RESMO
03539  BA71  A5 27              LDA RESMOH
03540  BA73  65 6B              ADC ARGMOH
03541  BA75  85 27              STA RESMOH
03542  BA77  A5 26              LDA RESHO
03543  BA79  65 6A              ADC ARGHO
03544  BA7B  85 26              STA RESHO
03545  BA7D  66 26       MLTPL3 ROR RESHO
03546  BA7F  66 27              ROR RESMOH
03547  BA81  66 28              ROR RESMO
03548  BA83  66 29              ROR RESLO
03549  BA85  66 70              ROR FACOV
03550  BA87  98                 TYA
03551  BA88  4A                 LSR A
03552  BA89  D0 D6              BNE MLTPL2
03553  BA8B  60          MULTRT RTS
03554  BA8C  85 22       CONUPK STA INDEX1
03555  BA8E  84 23              STY INDEX1+1
03556  BA90  A0 04              LDY #3+ADDPRC
03557  BA92  B1 22              LDA (INDEX1)Y
03558  BA94  85 6D              STA ARGLO
03559  BA96  88                 DEY
03560  BA97  B1 22              LDA (INDEX)Y
03561  BA99  85 6C              STA ARGMO
03562  BA9B  88                 DEY
03563  BA9C  B1 22              LDA (INDEX1)Y
03564  BA9E  85 6B              STA ARGMOH
03565  BAA0  88                 DEY
03566  BAA1  B1 22              LDA (INDEX1)Y
03567  BAA3  85 6E              STA ARGSGN
03568  BAA5  45 66              EOR FACSGN
03569  BAA7  85 6F              STA ARISGN
03570  BAA9  A5 6E              LDA ARGSGN
03571  BAAB  09 80              ORA #@200
03572  BAAD  85 6A              STA ARGHO
03573  BAAF  88                 DEY
03574  BAB0  B1 22              LDA (INDEX1)Y
03575  BAB2  85 69              STA ARGEXP
03576  BAB4  A5 61              LDA FACEXP
03577  BAB6  60                 RTS
03578  BAB7  A5 69       MULDIV LDA ARGEXP
03579  BAB9  F0 1F       MLDEXP BEQ ZEREMV
03580  BABB  18                 CLC
03581  BABC  65 61              ADC FACEXP
03582  BABE  90 04              BCC TRYOFF
03583  BAC0  30 1D              BMI GOOVER
03584  BAC2  18                 CLC
03585  BAC3  2C                 .BYT $2C
03586  BAC4  10 14       TRYOFF BPL ZEREMV
03587  BAC6  69 80              ADC #@200






CODE19......PAGE 0077

LINE# LOC   CODE        LINE


03588  BAC8  85 61              STA FACEXP
03589  BACA  D0 03              BNE *+5
03590  BACC  4C FB B8           JMP ZEROML
03591  BACF  A5 6F              LDA ARISGN
03592  BAD1  85 66              STA FACSGN
03593  BAD3  60                 RTS
03594  BAD4  A5 66       MLDVEX LDA FACSGN
03595  BAD6  49 FF              EOR #@377
03596  BAD8  30 05              BMI GOOVER
03597  BADA  68          ZEREMV PLA
03598  BADB  68                 PLA
03599  BADC  4C F7 B8           JMP ZEROFC
03600  BADF  4C 7E B9    GOOVER JMP OVERR
03601  BAE2  20 0C BC    MUL10  JSR MOVAF
03602  BAE5  AA                 TAX
03603  BAE6  F0 10              BEQ MUL10R
03604  BAE8  18                 CLC
03605  BAE9  69 02              ADC #2
03606  BAEB  B0 F2              BCS GOOVER
03607  BAED  A2 00       FINML6 LDX #0
03608  BAEF  86 6F              STX ARISGN
03609  BAF1  20 77 B8           JSR FADDC
03610  BAF4  E6 61              INC FACEXP
03611  BAF6  F0 E7              BEQ GOOVER
03612  BAF8  60          MUL10R RTS
03613  BAF9  84          TENC   .BYT @204,@40,0,0,0
03613  BAFA  20 
03613  BAFB  00 
03613  BAFC  00 
03613  BAFD  00 
03614  BAFE  20 0C BC    DIV10  JSR MOVAF
03615  BB01  A9 F9              LDA #<TENC
03616  BB03  A0 BA              LDY #>TENC
03617  BB05  A2 00              LDX #0
03618  BB07  86 6F       FDIVF  STX ARISGN
03619  BB09  20 A2 BB           JSR MOVFM
03620  BB0C  4C 12 BB           JMP FDIVT
03621  BB0F  20 8C BA    FDIV   JSR CONUPK
03622  BB12  F0 76       FDIVT  BEQ DV0ERR
03623  BB14  20 1B BC           JSR ROUND
03624  BB17  A9 00              LDA #0
03625  BB19  38                 SEC
03626  BB1A  E5 61              SBC FACEXP
03627  BB1C  85 61              STA FACEXP
03628  BB1E  20 B7 BA           JSR MULDIV
03629  BB21  E6 61              INC FACEXP
03630  BB23  F0 BA              BEQ GOOVER
03631  BB25  A2 FC              LDX #253-ADDPRC
03632  BB27  A9 01              LDA #1
03633  BB29  A4 6A       DIVIDE LDY ARGHO
03634  BB2B  C4 62              CPY FACHO
03635  BB2D  D0 10              BNE SAVQUO
03636  BB2F  A4 6B              LDY ARGMOH
03637  BB31  C4 63              CPY FACMOH
03638  BB33  D0 0A              BNE SAVQUO






CODE19......PAGE 0078

LINE# LOC   CODE        LINE


03639  BB35  A4 6C              LDY ARGMO
03640  BB37  C4 64              CPY FACMO
03641  BB39  D0 04              BNE SAVQUO
03642  BB3B  A4 6D              LDY ARGLO
03643  BB3D  C4 65              CPY FACLO
03644  BB3F  08          SAVQUO PHP
03645  BB40  2A                 ROL A
03646  BB41  90 09              BCC QSHFT
03647  BB43  E8                 INX
03648  BB44  95 29              STA RESLO,X
03649  BB46  F0 32              BEQ LD100
03650  BB48  10 34              BPL DIVNRM
03651  BB4A  A9 01              LDA #1
03652  BB4C  28          QSHFT  PLP
03653  BB4D  B0 0E              BCS DIVSUB
03654  BB4F  06 6D       SHFARG ASL ARGLO
03655  BB51  26 6C              ROL ARGMO
03656  BB53  26 6B              ROL ARGMOH
03657  BB55  26 6A              ROL ARGHO
03658  BB57  B0 E6              BCS SAVQUO
03659  BB59  30 CE              BMI DIVIDE
03660  BB5B  10 E2              BPL SAVQUO
03661  BB5D  A8          DIVSUB TAY
03662  BB5E  A5 6D              LDA ARGLO
03663  BB60  E5 65              SBC FACLO
03664  BB62  85 6D              STA ARGLO
03665  BB64  A5 6C              LDA ARGMO
03666  BB66  E5 64              SBC FACMO
03667  BB68  85 6C              STA ARGMO
03668  BB6A  A5 6B              LDA ARGMOH
03669  BB6C  E5 63              SBC FACMOH
03670  BB6E  85 6B              STA ARGMOH
03671  BB70  A5 6A              LDA ARGHO
03672  BB72  E5 62              SBC FACHO
03673  BB74  85 6A              STA ARGHO
03674  BB76  98                 TYA
03675  BB77  4C 4F BB           JMP SHFARG
03676  BB7A  A9 40       LD100  LDA #@100
03677  BB7C  D0 CE              BNE QSHFT
03678  BB7E  0A          DIVNRM ASL A
03679  BB7F  0A                 ASL A
03680  BB80  0A                 ASL A
03681  BB81  0A                 ASL A
03682  BB82  0A                 ASL A
03683  BB83  0A                 ASL A
03684  BB84  85 70              STA FACOV
03685  BB86  28                 PLP
03686  BB87  4C 8F BB           JMP MOVFR
03687  BB8A  A2 14       DV0ERR LDX #ERRDVO
03688  BB8C  4C 37 A4           JMP ERROR
03689  BB8F              .END
03690  BB8F              .LIB   CODE20









CODE20......PAGE 0079

LINE# LOC   CODE        LINE


03692  BB8F  A5 26       MOVFR  LDA RESHO
03693  BB91  85 62              STA FACHO
03694  BB93  A5 27              LDA RESMOH
03695  BB95  85 63              STA FACMOH
03696  BB97  A5 28              LDA RESMO
03697  BB99  85 64              STA FACMO
03698  BB9B  A5 29              LDA RESLO
03699  BB9D  85 65              STA FACLO
03700  BB9F  4C D7 B8           JMP NORMAL
03701  BBA2  85 22       MOVFM  STA INDEX1
03702  BBA4  84 23              STY INDEX1+1
03703  BBA6  A0 04              LDY #3+ADDPRC
03704  BBA8  B1 22              LDA (INDEX1)Y
03705  BBAA  85 65              STA FACLO
03706  BBAC  88                 DEY
03707  BBAD  B1 22              LDA (INDEX1)Y
03708  BBAF  85 64              STA FACMO
03709  BBB1  88                 DEY
03710  BBB2  B1 22              LDA (INDEX1)Y
03711  BBB4  85 63              STA FACMOH
03712  BBB6  88                 DEY
03713  BBB7  B1 22              LDA (INDEX1)Y
03714  BBB9  85 66              STA FACSGN
03715  BBBB  09 80              ORA #@200
03716  BBBD  85 62              STA FACHO
03717  BBBF  88                 DEY
03718  BBC0  B1 22              LDA (INDEX1)Y
03719  BBC2  85 61              STA FACEXP
03720  BBC4  84 70              STY FACOV
03721  BBC6  60                 RTS   
03722  BBC7  A2 5C       MOV2F  LDX #TEMPF2
03723  BBC9  2C                 .BYT $2C
03724  BBCA  A2 57       MOV1F  LDX #TEMPF1
03725  BBCC  A0 00              LDY #0
03726  BBCE  F0 04              BEQ MOVMF
03727  BBD0  A6 49       MOVVF  LDX FORPNT
03728  BBD2  A4 4A              LDY FORPNT+1
03729  BBD4  20 1B BC    MOVMF  JSR ROUND
03730  BBD7  86 22              STX INDEX1
03731  BBD9  84 23              STY INDEX1+1
03732  BBDB  A0 04              LDY #3+ADDPRC
03733  BBDD  A5 65              LDA FACLO
03734  BBDF  91 22              STA (INDEX)Y
03735  BBE1  88                 DEY
03736  BBE2  A5 64              LDA FACMO
03737  BBE4  91 22              STA (INDEX)Y
03738  BBE6  88                 DEY
03739  BBE7  A5 63              LDA FACMOH
03740  BBE9  91 22              STA (INDEX)Y
03741  BBEB  88                 DEY
03742  BBEC  A5 66              LDA FACSGN
03743  BBEE  09 7F              ORA #@177
03744  BBF0  25 62              AND FACHO
03745  BBF2  91 22              STA (INDEX)Y
03746  BBF4  88                 DEY






CODE20......PAGE 0080

LINE# LOC   CODE        LINE


03747  BBF5  A5 61              LDA FACEXP
03748  BBF7  91 22              STA (INDEX)Y
03749  BBF9  84 70              STY FACOV
03750  BBFB  60                 RTS
03751  BBFC  A5 6E       MOVFA  LDA ARGSGN
03752  BBFE  85 66       MOVFA1 STA FACSGN
03753  BC00  A2 05              LDX #4+ADDPRC
03754  BC02  B5 68       MOVFAL LDA ARGEXP-1,X
03755  BC04  95 60              STA FACEXP-1,X
03756  BC06  CA                 DEX
03757  BC07  D0 F9              BNE MOVFAL
03758  BC09  86 70              STX FACOV
03759  BC0B  60                 RTS
03760  BC0C  20 1B BC    MOVAF  JSR ROUND
03761  BC0F  A2 06       MOVEF  LDX #5+ADDPRC
03762  BC11  B5 60       MOVAFL LDA FACEXP-1,X
03763  BC13  95 68              STA ARGEXP-1,X
03764  BC15  CA                 DEX
03765  BC16  D0 F9              BNE MOVAFL
03766  BC18  86 70              STX FACOV
03767  BC1A  60          MOVRTS RTS
03768  BC1B  A5 61       ROUND  LDA FACEXP
03769  BC1D  F0 FB              BEQ MOVRTS
03770  BC1F  06 70              ASL FACOV
03771  BC21  90 F7              BCC MOVRTS
03772  BC23  20 6F B9    INCRND JSR INCFAC
03773  BC26  D0 F2              BNE MOVRTS
03774  BC28  4C 38 B9           JMP RNDSHF
03775  BC2B  A5 61       SIGN   LDA FACEXP
03776  BC2D  F0 09              BEQ SIGNRT
03777  BC2F  A5 66       FCSIGN LDA FACSGN
03778  BC31  2A          FCOMPS ROL A
03779  BC32  A9 FF              LDA #$FF
03780  BC34  B0 02              BCS SIGNRT
03781  BC36  A9 01              LDA #1
03782  BC38  60          SIGNRT RTS
03783  BC39  20 2B BC    SGN    JSR SIGN
03784  BC3C  85 62       FLOAT  STA FACHO
03785  BC3E  A9 00              LDA #0
03786  BC40  85 63              STA FACHO+1
03787  BC42  A2 88              LDX #@210
03788  BC44  A5 62       FLOATS LDA FACHO
03789  BC46  49 FF              EOR #@377
03790  BC48  2A                 ROL A
03791  BC49  A9 00       FLOATC LDA #0
03792  BC4B  85 65              STA FACLO
03793  BC4D  85 64              STA FACMO
03794  BC4F  86 61       FLOATB STX FACEXP
03795  BC51  85 70              STA FACOV
03796  BC53  85 66              STA FACSGN
03797  BC55  4C D2 B8           JMP FADFLT
03798  BC58  46 66       ABS    LSR FACSGN
03799  BC5A  60                 RTS
03800  BC5B  85 24       FCOMP  STA INDEX2
03801  BC5D  84 25       FCOMPN STY INDEX2+1






CODE20......PAGE 0081

LINE# LOC   CODE        LINE


03802  BC5F  A0 00              LDY #0
03803  BC61  B1 24              LDA (INDEX2)Y
03804  BC63  C8                 INY
03805  BC64  AA                 TAX
03806  BC65  F0 C4              BEQ SIGN
03807  BC67  B1 24              LDA (INDEX2)Y
03808  BC69  45 66              EOR FACSGN
03809  BC6B  30 C2              BMI FCSIGN
03810  BC6D  E4 61              CPX FACEXP
03811  BC6F  D0 21              BNE FCOMPC
03812  BC71  B1 24              LDA (INDEX2)Y
03813  BC73  09 80              ORA #@200
03814  BC75  C5 62              CMP FACHO
03815  BC77  D0 19              BNE FCOMPC
03816  BC79  C8                 INY
03817  BC7A  B1 24              LDA (INDEX2)Y
03818  BC7C  C5 63              CMP FACMOH
03819  BC7E  D0 12              BNE FCOMPC
03820  BC80  C8                 INY
03821  BC81  B1 24              LDA (INDEX2)Y
03822  BC83  C5 64              CMP FACMO
03823  BC85  D0 0B              BNE FCOMPC
03824  BC87  C8                 INY
03825  BC88  A9 7F              LDA #@177
03826  BC8A  C5 70              CMP FACOV
03827  BC8C  B1 24              LDA (INDEX2)Y
03828  BC8E  E5 65              SBC FACLO
03829  BC90  F0 28              BEQ QINTRT
03830  BC92  A5 66       FCOMPC LDA FACSGN
03831  BC94  90 02              BCC FCOMPD
03832  BC96  49 FF              EOR #@377
03833  BC98  4C 31 BC    FCOMPD JMP FCOMPS
03834  BC9B              .END
03835  BC9B              .LIB   CODE21



























CODE21......PAGE 0082

LINE# LOC   CODE        LINE


03837  BC9B  A5 61       QINT   LDA FACEXP
03838  BC9D  F0 4A              BEQ CLRFAC
03839  BC9F  38                 SEC
03840  BCA0  E9 A0              SBC #ADDPR8+@230
03841  BCA2  24 66              BIT FACSGN
03842  BCA4  10 09              BPL QISHFT
03843  BCA6  AA                 TAX
03844  BCA7  A9 FF              LDA #@377
03845  BCA9  85 68              STA BITS
03846  BCAB  20 4D B9           JSR NEGFCH
03847  BCAE  8A                 TXA
03848  BCAF  A2 61       QISHFT LDX #FAC
03849  BCB1  C9 F9              CMP #$F9
03850  BCB3  10 06              BPL QINT1
03851  BCB5  20 99 B9           JSR SHIFTR
03852  BCB8  84 68              STY BITS
03853  BCBA  60          QINTRT RTS
03854  BCBB  A8          QINT1  TAY
03855  BCBC  A5 66              LDA FACSGN
03856  BCBE  29 80              AND #@200
03857  BCC0  46 62              LSR FACHO
03858  BCC2  05 62              ORA FACHO
03859  BCC4  85 62              STA FACHO
03860  BCC6  20 B0 B9           JSR ROLSHF
03861  BCC9  84 68              STY BITS
03862  BCCB  60                 RTS
03863  BCCC  A5 61       INT    LDA FACEXP
03864  BCCE  C9 A0              CMP #ADDPR8+@230
03865  BCD0  B0 20              BCS INTRTS
03866  BCD2  20 9B BC           JSR QINT
03867  BCD5  84 70              STY FACOV
03868  BCD7  A5 66              LDA FACSGN
03869  BCD9  84 66              STY FACSGN
03870  BCDB  49 80              EOR #@200
03871  BCDD  2A                 ROL A
03872  BCDE  A9 A0              LDA #@230+8
03873  BCE0  85 61              STA FACEXP
03874  BCE2  A5 65              LDA FACLO
03875  BCE4  85 07              STA INTEGR
03876  BCE6  4C D2 B8           JMP FADFLT
03877  BCE9  85 62       CLRFAC STA FACHO
03878  BCEB  85 63              STA FACMOH
03879  BCED  85 64              STA FACMO
03880  BCEF  85 65              STA FACLO
03881  BCF1  A8                 TAY 
03882  BCF2  60          INTRTS RTS
03883  BCF3  A0 00       FIN    LDY #@0
03884  BCF5  A2 0A              LDX #@11+ADDPRC
03885  BCF7  94 5D       FINZLP STY DECCNT,X
03886  BCF9  CA                 DEX
03887  BCFA  10 FB              BPL FINZLP
03888  BCFC  90 0F              BCC FINDGQ
03889  BCFE  C9 2D              CMP #'-
03890  BD00  D0 04              BNE QPLUS
03891  BD02  86 67              STX SGNFLG






CODE21......PAGE 0083

LINE# LOC   CODE        LINE


03892  BD04  F0 04              BEQ FINC
03893  BD06  C9 2B       QPLUS  CMP #'+
03894  BD08  D0 05              BNE FIN1
03895  BD0A  20 73 00    FINC   JSR CHRGET
03896  BD0D  90 5B       FINDGQ BCC FINDIG
03897  BD0F  C9 2E       FIN1   CMP #'.
03898  BD11  F0 2E              BEQ FINDP
03899  BD13  C9 45              CMP #'E
03900  BD15  D0 30              BNE FINE
03901  BD17  20 73 00           JSR CHRGET
03902  BD1A  90 17              BCC FNEDG1
03903  BD1C  C9 AB              CMP #MINUTK
03904  BD1E  F0 0E              BEQ FINEC1
03905  BD20  C9 2D              CMP #'-
03906  BD22  F0 0A              BEQ FINEC1
03907  BD24  C9 AA              CMP #PLUSTK
03908  BD26  F0 08              BEQ FINEC
03909  BD28  C9 2B              CMP #'+
03910  BD2A  F0 04              BEQ FINEC
03911  BD2C  D0 07              BNE FINEC2
03912  BD2E  66 60       FINEC1 ROR EXPSGN
03913  BD30  20 73 00    FINEC  JSR CHRGET
03914  BD33  90 5C       FNEDG1 BCC FINEDG
03915  BD35  24 60       FINEC2 BIT EXPSGN
03916  BD37  10 0E              BPL FINE
03917  BD39  A9 00              LDA #0
03918  BD3B  38                 SEC
03919  BD3C  E5 5E              SBC TENEXP
03920  BD3E  4C 49 BD           JMP FINE1
03921  BD41  66 5F       FINDP  ROR DPTFLG
03922  BD43  24 5F              BIT DPTFLG
03923  BD45  50 C3              BVC FINC
03924  BD47  A5 5E       FINE   LDA TENEXP
03925  BD49  38          FINE1  SEC
03926  BD4A  E5 5D              SBC DECCNT
03927  BD4C  85 5E              STA TENEXP
03928  BD4E  F0 12              BEQ FINQNG
03929  BD50  10 09              BPL FINMUL
03930  BD52  20 FE BA    FINDIV JSR DIV10
03931  BD55  E6 5E              INC TENEXP
03932  BD57  D0 F9              BNE FINDIV
03933  BD59  F0 07              BEQ FINQNG
03934  BD5B  20 E2 BA    FINMUL JSR MUL10
03935  BD5E  C6 5E              DEC TENEXP
03936  BD60  D0 F9              BNE FINMUL
03937  BD62  A5 67       FINQNG LDA SGNFLG
03938  BD64  30 01              BMI NEGXQS
03939  BD66  60                 RTS
03940  BD67  4C B4 BF    NEGXQS JMP NEGOP
03941  BD6A  48          FINDIG PHA
03942  BD6B  24 5F              BIT DPTFLG
03943  BD6D  10 02              BPL FINDG1
03944  BD6F  E6 5D              INC DECCNT
03945  BD71  20 E2 BA    FINDG1 JSR MUL10
03946  BD74  68                 PLA






CODE21......PAGE 0084

LINE# LOC   CODE        LINE


03947  BD75  38                 SEC
03948  BD76  E9 30              SBC #'0
03949  BD78  20 7E BD           JSR FINLOG
03950  BD7B  4C 0A BD           JMP FINC
03951  BD7E  48          FINLOG PHA
03952  BD7F  20 0C BC           JSR MOVAF
03953  BD82  68                 PLA
03954  BD83  20 3C BC           JSR FLOAT
03955  BD86  A5 6E              LDA ARGSGN
03956  BD88  45 66              EOR FACSGN
03957  BD8A  85 6F              STA ARISGN
03958  BD8C  A6 61              LDX FACEXP
03959  BD8E  4C 6A B8           JMP FADDT
03960  BD91  A5 5E       FINEDG LDA TENEXP
03961  BD93  C9 0A              CMP #@12
03962  BD95  90 09              BCC MLEX10
03963  BD97  A9 64              LDA #@144
03964  BD99  24 60              BIT EXPSGN
03965  BD9B  30 11              BMI MLEXMI
03966  BD9D  4C 7E B9           JMP OVERR
03967  BDA0  0A          MLEX10 ASL A
03968  BDA1  0A                 ASL A
03969  BDA2  18                 CLC
03970  BDA3  65 5E              ADC TENEXP
03971  BDA5  0A                 ASL A
03972  BDA6  18                 CLC
03973  BDA7  A0 00              LDY #0
03974  BDA9  71 7A              ADC (TXTPTR)Y
03975  BDAB  38                 SEC
03976  BDAC  E9 30              SBC #'0
03977  BDAE  85 5E       MLEXMI STA TENEXP
03978  BDB0  4C 30 BD           JMP FINEC
03979  BDB3              .END
03980  BDB3              .LIB   CODE22



























CODE22......PAGE 0085

LINE# LOC   CODE        LINE


03982  BDB3  9B          N0999  .BYT @233,@76,@274,@37,@375
03982  BDB4  3E 
03982  BDB5  BC 
03982  BDB6  1F 
03982  BDB7  FD 
03983  BDB8  9E          N9999  .BYT @236,@156,@153,@47,@375
03983  BDB9  6E 
03983  BDBA  6B 
03983  BDBB  27 
03983  BDBC  FD 
03984  BDBD  9E          NMIL   .BYT @236,@156,@153,@50,0
03984  BDBE  6E 
03984  BDBF  6B 
03984  BDC0  28 
03984  BDC1  00 
03985  BDC2  A9 71       INPRT  LDA #<INTXT
03986  BDC4  A0 A3              LDY #>INTXT
03987  BDC6  20 DA BD           JSR STROU2
03988  BDC9  A5 3A              LDA CURLIN+1
03989  BDCB  A6 39              LDX CURLIN
03990  BDCD  85 62       LINPRT STA FACHO
03991  BDCF  86 63              STX FACHO+1
03992  BDD1  A2 90              LDX #@220
03993  BDD3  38                 SEC
03994  BDD4  20 49 BC           JSR FLOATC
03995  BDD7  20 DF BD           JSR FOUTC
03996  BDDA  4C 1E AB    STROU2 JMP STROUT
03997  BDDD  A0 01       FOUT   LDY #1
03998  BDDF  A9 20       FOUTC  LDA #' 
03999  BDE1  24 66              BIT FACSGN
04000  BDE3  10 02              BPL FOUT1
04001  BDE5  A9 2D              LDA #'-
04002  BDE7  99 FF 00    FOUT1  STA FBUFFR-1,Y
04003  BDEA  85 66              STA FACSGN
04004  BDEC  84 71              STY FBUFPT
04005  BDEE  C8                 INY
04006  BDEF  A9 30              LDA #'0
04007  BDF1  A6 61              LDX FACEXP
04008  BDF3  D0 03              BNE *+5
04009  BDF5  4C 04 BF           JMP FOUT19
04010  BDF8  A9 00              LDA #0
04011  BDFA  E0 80              CPX #@200
04012  BDFC  F0 02              BEQ FOUT37
04013  BDFE  B0 09              BCS FOUT7
04014  BE00  A9 BD       FOUT37 LDA #<NMIL
04015  BE02  A0 BD              LDY #>NMIL
04016  BE04  20 28 BA           JSR FMULT
04017  BE07  A9 F7              LDA #250-ADDPR2-ADDPRC
04018  BE09  85 5D       FOUT7  STA DECCNT
04019  BE0B  A9 B8       FOUT4  LDA #<N9999
04020  BE0D  A0 BD              LDY #>N9999
04021  BE0F  20 5B BC           JSR FCOMP
04022  BE12  F0 1E              BEQ BIGGES
04023  BE14  10 12              BPL FOUT9
04024  BE16  A9 B3       FOUT3  LDA #<N0999






CODE22......PAGE 0086

LINE# LOC   CODE        LINE


04025  BE18  A0 BD              LDY #>N0999
04026  BE1A  20 5B BC           JSR FCOMP
04027  BE1D  F0 02              BEQ FOUT38
04028  BE1F  10 0E              BPL FOUT5
04029  BE21  20 E2 BA    FOUT38 JSR MUL10
04030  BE24  C6 5D              DEC DECCNT
04031  BE26  D0 EE              BNE FOUT3
04032  BE28  20 FE BA    FOUT9  JSR DIV10
04033  BE2B  E6 5D              INC DECCNT
04034  BE2D  D0 DC              BNE FOUT4
04035  BE2F  20 49 B8    FOUT5  JSR FADDH
04036  BE32  20 9B BC    BIGGES JSR QINT
04037  BE35  A2 01              LDX #1
04038  BE37  A5 5D              LDA DECCNT
04039  BE39  18                 CLC
04040  BE3A  69 0A              ADC #ADDPR2+ADDPRC+7
04041  BE3C  30 09              BMI FOUTPI
04042  BE3E  C9 0B              CMP #ADDPR2+ADDPRC+@10
04043  BE40  B0 06              BCS FOUT6
04044  BE42  69 FF              ADC #$FF
04045  BE44  AA                 TAX
04046  BE45  A9 02              LDA #2
04047  BE47  38          FOUTPI SEC
04048  BE48  E9 02       FOUT6  SBC #2
04049  BE4A  85 5E              STA TENEXP
04050  BE4C  86 5D              STX DECCNT
04051  BE4E  8A                 TXA
04052  BE4F  F0 02              BEQ FOUT39
04053  BE51  10 13              BPL FOUT8
04054  BE53  A4 71       FOUT39 LDY FBUFPT
04055  BE55  A9 2E              LDA #'.
04056  BE57  C8                 INY
04057  BE58  99 FF 00           STA FBUFFR-1,Y
04058  BE5B  8A                 TXA
04059  BE5C  F0 06              BEQ FOUT16
04060  BE5E  A9 30              LDA #'0
04061  BE60  C8                 INY
04062  BE61  99 FF 00           STA FBUFFR-1,Y
04063  BE64  84 71       FOUT16 STY FBUFPT
04064  BE66  A0 00       FOUT8  LDY #0
04065  BE68  A2 80       FOUTIM LDX #@200
04066  BE6A  A5 65       FOUT2  LDA FACLO
04067  BE6C  18                 CLC
04068  BE6D  79 19 BF           ADC FOUTBL+2+ADDPRC,Y
04069  BE70  85 65              STA FACLO
04070  BE72  A5 64              LDA FACMO
04071  BE74  79 18 BF           ADC FOUTBL+1+ADDPRC,Y
04072  BE77  85 64              STA FACMO
04073  BE79  A5 63              LDA FACMOH
04074  BE7B  79 17 BF           ADC FOUTBL+1,Y
04075  BE7E  85 63              STA FACMOH
04076  BE80  A5 62              LDA FACHO
04077  BE82  79 16 BF           ADC FOUTBL,Y
04078  BE85  85 62              STA FACHO
04079  BE87  E8                 INX






CODE22......PAGE 0087

LINE# LOC   CODE        LINE


04080  BE88  B0 04              BCS FOUT41
04081  BE8A  10 DE              BPL FOUT2
04082  BE8C  30 02              BMI FOUT40
04083  BE8E  30 DA       FOUT41 BMI FOUT2
04084  BE90  8A          FOUT40 TXA
04085  BE91  90 04              BCC FOUTYP
04086  BE93  49 FF              EOR #@377
04087  BE95  69 0A              ADC #@12
04088  BE97  69 2F       FOUTYP ADC #@57
04089  BE99  C8                 INY
04090  BE9A  C8                 INY
04091  BE9B  C8                 INY
04092  BE9C  C8                 INY
04093  BE9D  84 47              STY FDECPT
04094  BE9F  A4 71              LDY FBUFPT
04095  BEA1  C8                 INY
04096  BEA2  AA                 TAX
04097  BEA3  29 7F              AND #@177
04098  BEA5  99 FF 00           STA FBUFFR-1,Y
04099  BEA8  C6 5D              DEC DECCNT
04100  BEAA  D0 06              BNE STXBUF
04101  BEAC  A9 2E              LDA #'.
04102  BEAE  C8                 INY
04103  BEAF  99 FF 00           STA FBUFFR-1,Y
04104  BEB2  84 71       STXBUF STY FBUFPT
04105  BEB4  A4 47              LDY FDECPT
04106  BEB6  8A                 TXA
04107  BEB7  49 FF              EOR #@377
04108  BEB9  29 80              AND #@200
04109  BEBB  AA                 TAX
04110  BEBC  C0 24              CPY #FDCEND-FOUTBL
04111  BEBE  F0 04              BEQ FOULDY
04112  BEC0  C0 3C              CPY #TIMEND-FOUTBL
04113  BEC2  D0 A6              BNE FOUT2
04114  BEC4  A4 71       FOULDY LDY FBUFPT
04115  BEC6  B9 FF 00    FOUT11 LDA FBUFFR-1,Y
04116  BEC9  88                 DEY
04117  BECA  C9 30              CMP #'0
04118  BECC  F0 F8              BEQ FOUT11
04119  BECE  C9 2E              CMP #'.
04120  BED0  F0 01              BEQ FOUT12
04121  BED2  C8                 INY
04122  BED3  A9 2B       FOUT12 LDA #'+
04123  BED5  A6 5E              LDX TENEXP
04124  BED7  F0 2E              BEQ FOUT17
04125  BED9  10 08              BPL FOUT14
04126  BEDB  A9 00              LDA #0
04127  BEDD  38                 SEC
04128  BEDE  E5 5E              SBC TENEXP
04129  BEE0  AA                 TAX
04130  BEE1              .END
04131  BEE1              .LIB   CODE23









CODE23......PAGE 0088

LINE# LOC   CODE        LINE


04133  BEE1  A9 2D              LDA #'-
04134  BEE3  99 01 01    FOUT14 STA FBUFFR+1,Y
04135  BEE6  A9 45              LDA #'E
04136  BEE8  99 00 01           STA FBUFFR,Y
04137  BEEB  8A                 TXA
04138  BEEC  A2 2F              LDX #@57
04139  BEEE  38                 SEC
04140  BEEF  E8          FOUT15 INX
04141  BEF0  E9 0A              SBC #@12
04142  BEF2  B0 FB              BCS FOUT15
04143  BEF4  69 3A              ADC #@72
04144  BEF6  99 03 01           STA FBUFFR+3,Y
04145  BEF9  8A                 TXA
04146  BEFA  99 02 01           STA FBUFFR+2,Y
04147  BEFD  A9 00              LDA #0
04148  BEFF  99 04 01           STA FBUFFR+4,Y
04149  BF02  F0 08              BEQ FOUT20
04150  BF04  99 FF 00    FOUT19 STA FBUFFR-1,Y
04151  BF07  A9 00       FOUT17 LDA #0
04152  BF09  99 00 01           STA FBUFFR,Y
04153  BF0C  A9 00       FOUT20 LDA #<FBUFFR
04154  BF0E  A0 01              LDY #>FBUFFR
04155  BF10  60                 RTS
04156  BF11  80          FHALF  .BYT @200,0
04156  BF12  00 
04157  BF13  00          ZERO   .BYT 0,0,0
04157  BF14  00 
04157  BF15  00 
04158  BF16  FA          FOUTBL .BYT @372,@12,@37,0,0
04158  BF17  0A 
04158  BF18  1F 
04158  BF19  00 
04158  BF1A  00 
04159  BF1B  98                 .BYT @230,@226,@200,@377
04159  BF1C  96 
04159  BF1D  80 
04159  BF1E  FF 
04160  BF1F  F0                 .BYT @360,@275,@300,0
04160  BF20  BD 
04160  BF21  C0 
04160  BF22  00 
04161  BF23  01                 .BYT 1,@206,@240,@377
04161  BF24  86 
04161  BF25  A0 
04161  BF26  FF 
04162  BF27  FF                 .BYT @377,@330,@360,0,0
04162  BF28  D8 
04162  BF29  F0 
04162  BF2A  00 
04162  BF2B  00 
04163  BF2C  03                 .BYT 3,@350,@377,@377
04163  BF2D  E8 
04163  BF2E  FF 
04163  BF2F  FF 
04164  BF30  FF                 .BYT @377,@234,0,0,0,@12






CODE23......PAGE 0089

LINE# LOC   CODE        LINE


04164  BF31  9C 
04164  BF32  00 
04164  BF33  00 
04164  BF34  00 
04164  BF35  0A 
04165  BF36  FF                 .BYT @377,@377,@377,@377
04165  BF37  FF 
04165  BF38  FF 
04165  BF39  FF 
04166  BF3A  FF          FDCEND .BYT @377,@337,@12,@200
04166  BF3B  DF 
04166  BF3C  0A 
04166  BF3D  80 
04167  BF3E  00                 .BYT 0,3,@113,@300,@377
04167  BF3F  03 
04167  BF40  4B 
04167  BF41  C0 
04167  BF42  FF 
04168  BF43  FF                 .BYT @377,@163,@140,0,0
04168  BF44  73 
04168  BF45  60 
04168  BF46  00 
04168  BF47  00 
04169  BF48  0E                 .BYT @16,@20,@377,@377
04169  BF49  10 
04169  BF4A  FF 
04169  BF4B  FF 
04170  BF4C  FD                 .BYT @375,@250,0,0,0,@74
04170  BF4D  A8 
04170  BF4E  00 
04170  BF4F  00 
04170  BF50  00 
04170  BF51  3C 
04171  BF52              TIMEND
04172  BF52              ;
04173  BF52  00          CKSMA0 .BYT $00        ;$A000 8K ROOM CHECK SUM A
DJ
04174  BF53              PATCHS *=*+30          ; PATCH AREA
04175  BF71              ;
04176  BF71  20 0C BC    SQR    JSR MOVAF
04177  BF74  A9 11              LDA #<FHALF
04178  BF76  A0 BF              LDY #>FHALF
04179  BF78  20 A2 BB           JSR MOVFM
04180  BF7B  F0 70       FPWRT  BEQ EXP
04181  BF7D  A5 69              LDA ARGEXP
04182  BF7F  D0 03              BNE FPWRT1
04183  BF81  4C F9 B8           JMP ZEROF1
04184  BF84  A2 4E       FPWRT1 LDX #<TEMPF3
04185  BF86  A0 00              LDY #>TEMPF3
04186  BF88  20 D4 BB           JSR MOVMF
04187  BF8B  A5 6E              LDA ARGSGN
04188  BF8D  10 0F              BPL FPWR1
04189  BF8F  20 CC BC           JSR INT
04190  BF92  A9 4E              LDA #<TEMPF3
04191  BF94  A0 00              LDY #>TEMPF3
04192  BF96  20 5B BC           JSR FCOMP






CODE23......PAGE 0090

LINE# LOC   CODE        LINE


04193  BF99  D0 03              BNE FPWR1
04194  BF9B  98                 TYA
04195  BF9C  A4 07              LDY INTEGR
04196  BF9E  20 FE BB    FPWR1  JSR MOVFA1
04197  BFA1  98                 TYA
04198  BFA2  48                 PHA
04199  BFA3  20 EA B9           JSR LOG
04200  BFA6  A9 4E              LDA #<TEMPF3
04201  BFA8  A0 00              LDY #>TEMPF3
04202  BFAA  20 28 BA           JSR FMULT
04203  BFAD  20 ED BF           JSR EXP
04204  BFB0  68                 PLA
04205  BFB1  4A                 LSR A
04206  BFB2  90 0A              BCC NEGRTS
04207  BFB4  A5 61       NEGOP  LDA FACEXP
04208  BFB6  F0 06              BEQ NEGRTS
04209  BFB8  A5 66              LDA FACSGN
04210  BFBA  49 FF              EOR #@377
04211  BFBC  85 66              STA FACSGN
04212  BFBE  60          NEGRTS RTS
04213  BFBF              .END
04214  BFBF              .LIB   CODE24







































CODE24......PAGE 0091

LINE# LOC   CODE        LINE


04216  BFBF  81          LOGEB2 .BYT @201,@70,@252,@73,@51
04216  BFC0  38 
04216  BFC1  AA 
04216  BFC2  3B 
04216  BFC3  29 
04217  BFC4  07          EXPCON .BYT 7,@161,@64,@130,@76
04217  BFC5  71 
04217  BFC6  34 
04217  BFC7  58 
04217  BFC8  3E 
04218  BFC9  56                 .BYT @126,@164,@26,@176
04218  BFCA  74 
04218  BFCB  16 
04218  BFCC  7E 
04219  BFCD  B3                 .BYT @263,@33,@167,@57
04219  BFCE  1B 
04219  BFCF  77 
04219  BFD0  2F 
04220  BFD1  EE                 .BYT @356,@343,@205,@172
04220  BFD2  E3 
04220  BFD3  85 
04220  BFD4  7A 
04221  BFD5  1D                 .BYT @35,@204,@34,@52
04221  BFD6  84 
04221  BFD7  1C 
04221  BFD8  2A 
04222  BFD9  7C                 .BYT @174,@143,@131,@130
04222  BFDA  63 
04222  BFDB  59 
04222  BFDC  58 
04223  BFDD  0A                 .BYT @12,@176,@165,@375
04223  BFDE  7E 
04223  BFDF  75 
04223  BFE0  FD 
04224  BFE1  E7                 .BYT @347,@306,@200,@61
04224  BFE2  C6 
04224  BFE3  80 
04224  BFE4  31 
04225  BFE5  72                 .BYT @162,@30,@20,@201
04225  BFE6  18 
04225  BFE7  10 
04225  BFE8  81 
04226  BFE9  00                 .BYT 0,0,0,0
04226  BFEA  00 
04226  BFEB  00 
04226  BFEC  00 
04227  BFED              ;
04228  BFED              ; START OF KERNAL ROM
04229  BFED              ;
04230  BFED  A9 BF       EXP    LDA #<LOGEB2
04231  BFEF  A0 BF              LDY #>LOGEB2
04232  BFF1  20 28 BA           JSR FMULT
04233  BFF4  A5 70              LDA FACOV
04234  BFF6  69 50              ADC #@120
04235  BFF8  90 03              BCC STOLDX






CODE24......PAGE 0092

LINE# LOC   CODE        LINE


04236  BFFA  20 23 BC           JSR INCRND
04237  BFFD  4C 00 E0    STOLDX JMP STOLD       ;CROSS BOUNDRIES
04238  C000              .END
04239  C000              .LIB   CODE25

























































CODE25......PAGE 0093

LINE# LOC   CODE        LINE


04241  C000                     *=$E000         ;START OF VIC-40 KERNAL RO
M


04243  E000              ; CONTINUATION OF EXPONENT ROUTINE
04244  E000              ;
04245  E000  85 56       STOLD  STA OLDOV
04246  E002  20 0F BC           JSR MOVEF
04247  E005  A5 61              LDA FACEXP
04248  E007  C9 88              CMP #@210
04249  E009  90 03              BCC EXP1
04250  E00B  20 D4 BA    GOMLDV JSR MLDVEX
04251  E00E  20 CC BC    EXP1   JSR INT
04252  E011  A5 07              LDA INTEGR
04253  E013  18                 CLC
04254  E014  69 81              ADC #@201
04255  E016  F0 F3              BEQ GOMLDV
04256  E018  38                 SEC
04257  E019  E9 01              SBC #1
04258  E01B  48                 PHA
04259  E01C  A2 05              LDX #4+ADDPRC
04260  E01E  B5 69       SWAPLP LDA ARGEXP,X
04261  E020  B4 61              LDY FACEXP,X
04262  E022  95 61              STA FACEXP,X
04263  E024  94 69              STY ARGEXP,X
04264  E026  CA                 DEX
04265  E027  10 F5              BPL SWAPLP
04266  E029  A5 56              LDA OLDOV
04267  E02B  85 70              STA FACOV
04268  E02D  20 53 B8           JSR FSUBT
04269  E030  20 B4 BF           JSR NEGOP
04270  E033  A9 C4              LDA #<EXPCON
04271  E035  A0 BF              LDY #>EXPCON
04272  E037  20 59 E0           JSR POLY
04273  E03A  A9 00              LDA #0
04274  E03C  85 6F              STA ARISGN
04275  E03E  68                 PLA
04276  E03F  20 B9 BA           JSR MLDEXP
04277  E042  60                 RTS
04278  E043  85 71       POLYX  STA POLYPT
04279  E045  84 72              STY POLYPT+1
04280  E047  20 CA BB           JSR MOV1F
04281  E04A  A9 57              LDA #TEMPF1
04282  E04C  20 28 BA           JSR FMULT
04283  E04F  20 5D E0           JSR POLY1
04284  E052  A9 57              LDA #<TEMPF1
04285  E054  A0 00              LDY #>TEMPF1
04286  E056  4C 28 BA           JMP FMULT
04287  E059  85 71       POLY   STA POLYPT
04288  E05B  84 72              STY POLYPT+1
04289  E05D  20 C7 BB    POLY1  JSR MOV2F
04290  E060  B1 71              LDA (POLYPT)Y
04291  E062  85 67              STA DEGREE
04292  E064  A4 71              LDY POLYPT
04293  E066  C8                 INY
04294  E067  98                 TYA






CODE25......PAGE 0094

LINE# LOC   CODE        LINE


04295  E068  D0 02              BNE POLY3
04296  E06A  E6 72              INC POLYPT+1
04297  E06C  85 71       POLY3  STA POLYPT
04298  E06E  A4 72              LDY POLYPT+1
04299  E070  20 28 BA    POLY2  JSR FMULT
04300  E073  A5 71              LDA POLYPT
04301  E075  A4 72              LDY POLYPT+1
04302  E077  18                 CLC
04303  E078  69 05              ADC #4+ADDPRC
04304  E07A  90 01              BCC POLY4
04305  E07C  C8                 INY
04306  E07D  85 71       POLY4  STA POLYPT
04307  E07F  84 72              STY POLYPT+1
04308  E081  20 67 B8           JSR FADD
04309  E084  A9 5C              LDA #<TEMPF2
04310  E086  A0 00              LDY #>TEMPF2
04311  E088  C6 67              DEC DEGREE
04312  E08A  D0 E4              BNE POLY2
04313  E08C  60                 RTS
04314  E08D  98          RMULC  .BYT @230,@65,@104,@172,0
04314  E08E  35 
04314  E08F  44 
04314  E090  7A 
04314  E091  00 
04315  E092  68          RADDC  .BYT @150,@50,@261,@106,0
04315  E093  28 
04315  E094  B1 
04315  E095  46 
04315  E096  00 
04316  E097  20 2B BC    RND    JSR SIGN
04317  E09A  30 37              BMI RND1
04318  E09C  D0 20              BNE QSETNR
04319  E09E  20 F3 FF           JSR RDBAS
04320  E0A1  86 22              STX INDEX1
04321  E0A3  84 23              STY INDEX1+1
04322  E0A5  A0 04              LDY #4
04323  E0A7  B1 22              LDA (INDEX1)Y
04324  E0A9  85 62              STA FACHO
04325  E0AB  C8                 INY
04326  E0AC  B1 22              LDA (INDEX1)Y
04327  E0AE  85 64              STA FACMO
04328  E0B0  A0 08              LDY #8
04329  E0B2  B1 22              LDA (INDEX1)Y
04330  E0B4  85 63              STA FACMOH
04331  E0B6  C8                 INY
04332  E0B7  B1 22              LDA (INDEX1)Y
04333  E0B9  85 65              STA FACLO
04334  E0BB  4C E3 E0           JMP STRNEX
04335  E0BE  A9 8B       QSETNR LDA #<RNDX
04336  E0C0  A0 00              LDY #>RNDX
04337  E0C2  20 A2 BB           JSR MOVFM
04338  E0C5  A9 8D              LDA #<RMULC
04339  E0C7  A0 E0              LDY #>RMULC
04340  E0C9  20 28 BA           JSR FMULT
04341  E0CC  A9 92              LDA #<RADDC






CODE25......PAGE 0095

LINE# LOC   CODE        LINE


04342  E0CE  A0 E0              LDY #>RADDC
04343  E0D0  20 67 B8           JSR FADD
04344  E0D3  A6 65       RND1   LDX FACLO
04345  E0D5  A5 62              LDA FACHO
04346  E0D7  85 65              STA FACLO
04347  E0D9  86 62              STX FACHO
04348  E0DB  A6 63              LDX FACMOH
04349  E0DD  A5 64              LDA FACMO
04350  E0DF  85 63              STA FACMOH
04351  E0E1  86 64              STX FACMO
04352  E0E3  A9 00       STRNEX LDA #0
04353  E0E5  85 66              STA FACSGN
04354  E0E7  A5 61              LDA FACEXP
04355  E0E9  85 70              STA FACOV
04356  E0EB  A9 80              LDA #@200
04357  E0ED  85 61              STA FACEXP
04358  E0EF  20 D7 B8           JSR NORMAL
04359  E0F2  A2 8B              LDX #<RNDX
04360  E0F4  A0 00              LDY #>RNDX
04361  E0F6  4C D4 BB    GMOVMF JMP MOVMF
04362  E0F9              .END
04363  E0F9              .LIB   CODE26







































CODE26......PAGE 0096

LINE# LOC   CODE        LINE


04365  E0F9              ;MOST REFERENCES TO KERNAL ARE DEFINED HERE
04366  E0F9              ;
04367  E0F9  C9 F0       EREXIT CMP #$F0        ;CHECK FOR SPECIAL CASE
04368  E0FB  D0 07              BNE EREXIX
04369  E0FD              ; TOP OF MEMORY HAS CHANGED
04370  E0FD  84 38              STY MEMSIZ+1
04371  E0FF  86 37              STX MEMSIZ
04372  E101  4C 63 A6           JMP CLEART      ;ACT AS IF HE TYPED CLEAR
04373  E104  AA          EREXIX TAX             ;SET TERMINATION FLAGS
04374  E105  D0 02              BNE EREXIY
04375  E107  A2 1E              LDX #ERBRK      ;BREAK ERROR
04376  E109  4C 37 A4    EREXIY JMP ERROR       ;NORMAL ERROR





04378  E10C              CLSCHN =$FFCC





04380  E10C  20 D2 FF    OUTCH  JSR $FFD2
04381  E10F  B0 E8              BCS EREXIT
04382  E111  60                 RTS





04384  E112  20 CF FF    INCHR  JSR $FFCF
04385  E115  B0 E2              BCS EREXIT
04386  E117  60                 RTS





04388  E118              CCALL  =$FFE7





04390  E118              SETTIM =$FFDB
04391  E118              RDTIM  =$FFDE





04393  E118  20 C9 FF    COOUT  JSR $FFC9
04394  E11B  B0 DC              BCS EREXIT
04395  E11D  60                 RTS






CODE26......PAGE 0097

LINE# LOC   CODE        LINE


04397  E11E  20 C6 FF    COIN   JSR $FFC6
04398  E121  B0 D6              BCS EREXIT
04399  E123  60                 RTS





04401  E124              READST =$FFB7





04403  E124  20 E4 FF    CGETL  JSR $FFE4
04404  E127  B0 D0              BCS EREXIT
04405  E129  60                 RTS





04407  E12A              RDBAS  =$FFF3





04409  E12A              SETMSG =$FF90





04411  E12A              PLOT   =$FFF0





04413  E12A  20 8A AD    CSYS   JSR FRMNUM      ;EVAL FORMULA
04414  E12D  20 F7 B7           JSR GETADR      ;CONVERT TO INT. ADDR
04415  E130  A9 E1              LDA #>CSYSRZ    ;PUSH RETURN ADDRESS
04416  E132  48                 PHA
04417  E133  A9 46              LDA #<CSYSRZ
04418  E135  48                 PHA
04419  E136  AD 0F 03           LDA SPREG       ;STATUS REG
04420  E139  48                 PHA
04421  E13A  AD 0C 03           LDA SAREG       ;LOAD 6502 REGS
04422  E13D  AE 0D 03           LDX SXREG
04423  E140  AC 0E 03           LDY SYREG
04424  E143  28                 PLP             ;LOAD 6502 STATUS REG
04425  E144  6C 14 00           JMP (LINNUM)    ;GO DO IT
04426  E147              CSYSRZ =*-1            ;RETURN TO HERE
04427  E147  08                 PHP             ;SAVE STATUS REG






CODE26......PAGE 0098

LINE# LOC   CODE        LINE


04428  E148  8D 0C 03           STA SAREG       ;SAVE 6502 REGS
04429  E14B  8E 0D 03           STX SXREG
04430  E14E  8C 0E 03           STY SYREG
04431  E151  68                 PLA             ;GET STATUS REG
04432  E152  8D 0F 03           STA SPREG
04433  E155  60                 RTS             ;RETURN TO SYSTEM





04435  E156  20 D4 E1    CSAVE  JSR PLSV        ;PARSE PARMS
04436  E159  A6 2D              LDX VARTAB      ;END SAVE ADDR
04437  E15B  A4 2E              LDY VARTAB+1
04438  E15D  A9 2B              LDA #<TXTTAB    ;INDIRECT WITH START ADDRE
SS
04439  E15F  20 D8 FF           JSR $FFD8       ;SAVE IT
04440  E162  B0 95              BCS EREXIT
04441  E164  60                 RTS





04443  E165  A9 01       CVERF  LDA #1          ;VERIFY FLAG
04444  E167  2C                 .BYT $2C        ;SKIP TWO BYTES





04446  E168  A9 00       CLOAD  LDA #0          ;LOAD FLAG
04447  E16A  85 0A              STA VERCK
04448  E16C  20 D4 E1           JSR PLSV        ;PARSE PARAMETERS
04449  E16F              ;
04450  E16F              CLD10                  ; JSR $FFE1 ;CHECK RUN/STO
P
04451  E16F              ; CMP #$FF ;DONE YET?
04452  E16F              ; BNE CLD10 ;STILL BOUNCING
04453  E16F  A5 0A              LDA VERCK
04454  E171  A6 2B              LDX TXTTAB      ;.X AND .Y HAVE ALT...
04455  E173  A4 2C              LDY TXTTAB+1    ;...LOAD ADDRESS
04456  E175  20 D5 FF           JSR $FFD5       ;LOAD IT
04457  E178  B0 57              BCS JERXIT      ;PROBLEMS
04458  E17A              ;
04459  E17A  A5 0A              LDA VERCK
04460  E17C  F0 17              BEQ CLD50       ;WAS LOAD
04461  E17E              ;
04462  E17E              ;FINISH VERIFY
04463  E17E              ;
04464  E17E  A2 1C              LDX #ERVFY      ;ASSUME ERROR
04465  E180  20 B7 FF           JSR $FFB7       ;READ STATUS
04466  E183  29 10              AND #$10        ;CHECK ERROR
04467  E185  D0 17              BNE CLD55       ;REPLACES BEQ *+5/JMP ERRO
R
04468  E187              ;
04469  E187              ;PRINT VERIFY 'OK' IF DIRECT
04470  E187              ;






CODE26......PAGE 0099

LINE# LOC   CODE        LINE


04471  E187  A5 7A              LDA TXTPTR
04472  E189  C9 02              CMP #BUFPAG
04473  E18B  F0 07              BEQ CLD20
04474  E18D  A9 64              LDA #<OKMSG
04475  E18F  A0 A3              LDY #>OKMSG
04476  E191  4C 1E AB           JMP STROUT
04477  E194              ;
04478  E194  60          CLD20  RTS





04480  E195              ;
04481  E195              ;FINISH LOAD
04482  E195              ;
04483  E195  20 B7 FF    CLD50  JSR $FFB7       ;READ STATUS
04484  E198  29 BF              AND #$FF-$40    ;CLEAR E.O.I.
04485  E19A  F0 05              BEQ CLD60       ;WAS O.K.
04486  E19C  A2 1D              LDX #ERLOAD
04487  E19E  4C 37 A4    CLD55  JMP ERROR
04488  E1A1              ;
04489  E1A1  A5 7B       CLD60  LDA TXTPTR+1
04490  E1A3  C9 02              CMP #BUFPAG     ;DIRECT?
04491  E1A5  D0 0E              BNE CLD70       ;NO...
04492  E1A7              ;
04493  E1A7  86 2D              STX VARTAB
04494  E1A9  84 2E              STY VARTAB+1    ;END LOAD ADDRESS
04495  E1AB  A9 76              LDA #<REDDY
04496  E1AD  A0 A3              LDY #>REDDY
04497  E1AF  20 1E AB           JSR STROUT
04498  E1B2  4C 2A A5           JMP FINI
04499  E1B5              ;
04500  E1B5              ;PROGRAM LOAD
04501  E1B5              ;
04502  E1B5  20 8E A6    CLD70  JSR STXTPT
04503  E1B8  20 33 A5           JSR LNKPRG
04504  E1BB  4C 77 A6           JMP FLOAD





04506  E1BE  20 19 E2    COPEN  JSR PAOC        ;PARSE STATEMENT
04507  E1C1  20 C0 FF           JSR $FFC0       ;OPEN IT
04508  E1C4  B0 0B              BCS JERXIT      ;BAD STUFF OR MEMSIZ CHANG
E
04509  E1C6  60                 RTS             ;A.O.K.





04511  E1C7  20 19 E2    CCLOS  JSR PAOC        ;PARSE STATEMENT
04512  E1CA  A5 49              LDA ANDMSK      ;GET LA
04513  E1CC  20 C3 FF           JSR $FFC3       ;CLOSE IT






CODE26......PAGE 0100

LINE# LOC   CODE        LINE


04514  E1CF  90 C3              BCC CLD20       ;IT'S OKAY...NO MEMSIZE CH
ANGE
04515  E1D1              ;
04516  E1D1  4C F9 E0    JERXIT JMP EREXIT





04518  E1D4              ;
04519  E1D4              ;PARSE LOAD AND SAVE COMMANDS
04520  E1D4              ;
04521  E1D4              PLSV
04522  E1D4              ;DEFAULT FILE NAME
04523  E1D4              ;
04524  E1D4  A9 00              LDA #0          ;LENGTH=0
04525  E1D6  20 BD FF           JSR $FFBD
04526  E1D9              ;
04527  E1D9              ;DEFAULT DEVICE #
04528  E1D9              ;
04529  E1D9  A2 01              LDX #1          ;DEVICE #1
04530  E1DB  A0 00              LDY #0          ;COMMAND 0
04531  E1DD  20 BA FF           JSR $FFBA
04532  E1E0              ;
04533  E1E0  20 06 E2           JSR PAOC20      ;BY-PASS JUNK
04534  E1E3  20 57 E2           JSR PAOC15      ;GET/SET FILE NAME
04535  E1E6  20 06 E2           JSR PAOC20      ;BY-PASS JUNK
04536  E1E9  20 00 E2           JSR PLSV7       ;GET ',FA'
04537  E1EC  A0 00              LDY #0          ;COMMAND 0
04538  E1EE  86 49              STX ANDMSK
04539  E1F0  20 BA FF           JSR $FFBA
04540  E1F3  20 06 E2           JSR PAOC20      ;BY-PASS JUNK
04541  E1F6  20 00 E2           JSR PLSV7       ;GET ',SA'
04542  E1F9  8A                 TXA             ;NEW COMMAND
04543  E1FA  A8                 TAY
04544  E1FB  A6 49              LDX ANDMSK      ;DEVICE #
04545  E1FD  4C BA FF           JMP $FFBA





04547  E200              ;LOOK FOR COMMA FOLLOWED BY BYTE
04548  E200  20 0E E2    PLSV7  JSR PAOC30
04549  E203  4C 9E B7           JMP GETBYT





04551  E206              ;SKIP RETURN IF NEXT CHAR IS END
04552  E206              ;
04553  E206  20 79 00    PAOC20 JSR CHRGOT
04554  E209  D0 02              BNE PAOCX
04555  E20B  68                 PLA
04556  E20C  68                 PLA






CODE26......PAGE 0101

LINE# LOC   CODE        LINE


04557  E20D  60          PAOCX  RTS





04559  E20E              ;CHECK FOR COMMA AND GOOD STUFF
04560  E20E              ;
04561  E20E  20 FD AE    PAOC30 JSR CHKCOM      ;CHECK COMMA
04562  E211  20 79 00    PAOC32 JSR CHRGOT      ;GET CURRENT
04563  E214  D0 F7              BNE PAOCX       ;IS O.K.
04564  E216  4C 08 AF    PAOC40 JMP SNERR       ;BAD...END OF LINE





04566  E219              ;PARSE OPEN/CLOSE
04567  E219              ;
04568  E219  A9 00       PAOC   LDA #0
04569  E21B  20 BD FF           JSR $FFBD       ;DEFAULT FILE NAME
04570  E21E              ;
04571  E21E  20 11 E2           JSR PAOC32      ;MUST GOT SOMETHING
04572  E221  20 9E B7           JSR GETBYT      ;GET LA
04573  E224  86 49              STX ANDMSK
04574  E226  8A                 TXA
04575  E227  A2 01              LDX #1          ;DEFAULT DEVICE
04576  E229  A0 00              LDY #0          ;DEFAULT COMMAND
04577  E22B  20 BA FF           JSR $FFBA       ;STORE IT
04578  E22E  20 06 E2           JSR PAOC20      ;SKIP JUNK
04579  E231  20 00 E2           JSR PLSV7
04580  E234  86 4A              STX EORMSK
04581  E236  A0 00              LDY #0          ;DEFAULT COMMAND
04582  E238  A5 49              LDA ANDMSK      ;GET LA
04583  E23A  E0 03              CPX #3
04584  E23C  90 01              BCC PAOC5
04585  E23E  88                 DEY             ;DEFAULT IEEE TO $FF
04586  E23F  20 BA FF    PAOC5  JSR $FFBA       ;STORE THEM
04587  E242  20 06 E2           JSR PAOC20      ;SKIP JUNK
04588  E245  20 00 E2           JSR PLSV7       ;GET SA
04589  E248  8A                 TXA
04590  E249  A8                 TAY
04591  E24A  A6 4A              LDX EORMSK
04592  E24C  A5 49              LDA ANDMSK
04593  E24E  20 BA FF           JSR $FFBA       ;SET UP REAL EVEYTHING
04594  E251  20 06 E2    PAOC7  JSR PAOC20
04595  E254  20 0E E2           JSR PAOC30
04596  E257  20 9E AD    PAOC15 JSR FRMEVL
04597  E25A  20 A3 B6           JSR FRESTR      ;LENGTH IN .A
04598  E25D  A6 22              LDX INDEX1
04599  E25F  A4 23              LDY INDEX1+1
04600  E261  4C BD FF           JMP $FFBD
04601  E264              .END
04602  E264              .LIB   TRIG







TRIG FUNCTIONS......PAGE 0102

LINE# LOC   CODE        LINE


04604  E264  A9 E0       COS    LDA #<PI2
04605  E266  A0 E2              LDY #>PI2
04606  E268  20 67 B8           JSR FADD
04607  E26B  20 0C BC    SIN    JSR MOVAF
04608  E26E  A9 E5              LDA #<TWOPI
04609  E270  A0 E2              LDY #>TWOPI
04610  E272  A6 6E              LDX ARGSGN
04611  E274  20 07 BB           JSR FDIVF
04612  E277  20 0C BC           JSR MOVAF
04613  E27A  20 CC BC           JSR INT
04614  E27D  A9 00              LDA #0
04615  E27F  85 6F              STA ARISGN
04616  E281  20 53 B8           JSR FSUBT
04617  E284  A9 EA              LDA #<FR4
04618  E286  A0 E2              LDY #>FR4
04619  E288  20 50 B8           JSR FSUB
04620  E28B  A5 66              LDA FACSGN
04621  E28D  48                 PHA
04622  E28E  10 0D              BPL SIN1
04623  E290  20 49 B8           JSR FADDH
04624  E293  A5 66              LDA FACSGN
04625  E295  30 09              BMI SIN2
04626  E297  A5 12              LDA TANSGN
04627  E299  49 FF              EOR #$FF
04628  E29B  85 12              STA TANSGN
04629  E29D  20 B4 BF    SIN1   JSR NEGOP
04630  E2A0  A9 EA       SIN2   LDA #<FR4
04631  E2A2  A0 E2              LDY #>FR4
04632  E2A4  20 67 B8           JSR FADD
04633  E2A7  68                 PLA
04634  E2A8  10 03              BPL SIN3
04635  E2AA  20 B4 BF           JSR NEGOP
04636  E2AD  A9 EF       SIN3   LDA #<SINCON
04637  E2AF  A0 E2              LDY #>SINCON
04638  E2B1  4C 43 E0           JMP POLYX
04639  E2B4  20 CA BB    TAN    JSR MOV1F
04640  E2B7  A9 00              LDA #0
04641  E2B9  85 12              STA TANSGN
04642  E2BB  20 6B E2           JSR SIN
04643  E2BE  A2 4E              LDX #<TEMPF3
04644  E2C0  A0 00              LDY #>TEMPF3
04645  E2C2  20 F6 E0           JSR GMOVMF
04646  E2C5  A9 57              LDA #<TEMPF1
04647  E2C7  A0 00              LDY #>TEMPF1
04648  E2C9  20 A2 BB           JSR MOVFM
04649  E2CC  A9 00              LDA #0
04650  E2CE  85 66              STA FACSGN
04651  E2D0  A5 12              LDA TANSGN
04652  E2D2  20 DC E2           JSR COSC
04653  E2D5  A9 4E              LDA #<TEMPF3
04654  E2D7  A0 00              LDY #>TEMPF3
04655  E2D9  4C 0F BB           JMP FDIV
04656  E2DC  48          COSC   PHA
04657  E2DD  4C 9D E2           JMP SIN1
04658  E2E0  81          PI2    .BYT @201,@111,@17,@332,@242






TRIG FUNCTIONS......PAGE 0103

LINE# LOC   CODE        LINE


04658  E2E1  49 
04658  E2E2  0F 
04658  E2E3  DA 
04658  E2E4  A2 
04659  E2E5  83          TWOPI  .BYT @203,@111,@17,@332,@242
04659  E2E6  49 
04659  E2E7  0F 
04659  E2E8  DA 
04659  E2E9  A2 
04660  E2EA  7F          FR4    .BYT @177,0,0,0,0
04660  E2EB  00 
04660  E2EC  00 
04660  E2ED  00 
04660  E2EE  00 
04661  E2EF  05          SINCON .BYT 5,@204,@346,@32,@55
04661  E2F0  84 
04661  E2F1  E6 
04661  E2F2  1A 
04661  E2F3  2D 
04662  E2F4  1B                 .BYT @33,@206,@50,@7,@373
04662  E2F5  86 
04662  E2F6  28 
04662  E2F7  07 
04662  E2F8  FB 
04663  E2F9  F8                 .BYT @370,@207,@231,@150,@211
04663  E2FA  87 
04663  E2FB  99 
04663  E2FC  68 
04663  E2FD  89 
04664  E2FE  01                 .BYT 1,@207,@43,@65,@337,@341
04664  E2FF  87 
04664  E300  23 
04664  E301  35 
04664  E302  DF 
04664  E303  E1 
04665  E304  86                 .BYT @206,@245,@135,@347,@50,@203
04665  E305  A5 
04665  E306  5D 
04665  E307  E7 
04665  E308  28 
04665  E309  83 
04666  E30A  49                 .BYT @111,@17,@332,@242
04666  E30B  0F 
04666  E30C  DA 
04666  E30D  A2 
04667  E30E  A5 66       ATN    LDA FACSGN
04668  E310  48                 PHA
04669  E311  10 03              BPL ATN1
04670  E313  20 B4 BF           JSR NEGOP
04671  E316  A5 61       ATN1   LDA FACEXP
04672  E318  48                 PHA
04673  E319  C9 81              CMP #@201
04674  E31B  90 07              BCC ATN2
04675  E31D  A9 BC              LDA #<FONE
04676  E31F  A0 B9              LDY #>FONE






TRIG FUNCTIONS......PAGE 0104

LINE# LOC   CODE        LINE


04677  E321  20 0F BB           JSR FDIV
04678  E324  A9 3E       ATN2   LDA #<ATNCON
04679  E326  A0 E3              LDY #>ATNCON
04680  E328  20 43 E0           JSR POLYX
04681  E32B  68                 PLA
04682  E32C  C9 81              CMP #@201
04683  E32E  90 07              BCC ATN3
04684  E330  A9 E0              LDA #<PI2
04685  E332  A0 E2              LDY #>PI2
04686  E334  20 50 B8           JSR FSUB
04687  E337  68          ATN3   PLA
04688  E338  10 03              BPL ATN4
04689  E33A  4C B4 BF           JMP NEGOP
04690  E33D  60          ATN4   RTS
04691  E33E  0B          ATNCON .BYT @13,@166,@263,@203
04691  E33F  76 
04691  E340  B3 
04691  E341  83 
04692  E342  BD                 .BYT @275,@323,@171,@36,@364
04692  E343  D3 
04692  E344  79 
04692  E345  1E 
04692  E346  F4 
04693  E347  A6                 .BYT @246,@365,@173,@203,@374
04693  E348  F5 
04693  E349  7B 
04693  E34A  83 
04693  E34B  FC 
04694  E34C  B0                 .BYT @260,@20
04694  E34D  10 
04695  E34E  7C                 .BYT @174,@14,@37,@147,@312
04695  E34F  0C 
04695  E350  1F 
04695  E351  67 
04695  E352  CA 
04696  E353  7C                 .BYT @174,@336,@123,@313,@301
04696  E354  DE 
04696  E355  53 
04696  E356  CB 
04696  E357  C1 
04697  E358  7D                 .BYT @175,@24,@144,@160,@114
04697  E359  14 
04697  E35A  64 
04697  E35B  70 
04697  E35C  4C 
04698  E35D  7D                 .BYT @175,@267,@352,@121,@172
04698  E35E  B7 
04698  E35F  EA 
04698  E360  51 
04698  E361  7A 
04699  E362  7D                 .BYT @175,@143,@60,@210,@176
04699  E363  63 
04699  E364  30 
04699  E365  88 
04699  E366  7E 






TRIG FUNCTIONS......PAGE 0105

LINE# LOC   CODE        LINE


04700  E367  7E                 .BYT @176,@222,@104,@231,@72
04700  E368  92 
04700  E369  44 
04700  E36A  99 
04700  E36B  3A 
04701  E36C  7E                 .BYT @176,@114,@314,@221,@307
04701  E36D  4C 
04701  E36E  CC 
04701  E36F  91 
04701  E370  C7 
04702  E371  7F                 .BYT @177,@252,@252,@252,@23
04702  E372  AA 
04702  E373  AA 
04702  E374  AA 
04702  E375  13 
04703  E376  81                 .BYT @201,0,0,0,0
04703  E377  00 
04703  E378  00 
04703  E379  00 
04703  E37A  00 
04704  E37B              .END
04705  E37B              .LIB   INIT







































INIT......PAGE 0106

LINE# LOC   CODE        LINE


04707  E37B  20 CC FF    PANIC  JSR CLSCHN      ;WARM START BASIC...
04708  E37E  A9 00              LDA #0          ;CLEAR CHANNELS
04709  E380  85 13              STA CHANNL
04710  E382  20 7A A6           JSR STKINI      ;RESTORE STACK
04711  E385  58                 CLI             ;ENABLE IRQ'S


04713  E386  A2 80       READY  LDX #$80
04714  E388  6C 00 03           JMP (IERROR)
04715  E38B  8A          NERROR TXA             ;GET  HIGH BIT
04716  E38C  30 03              BMI NREADY
04717  E38E  4C 3A A4           JMP NERROX
04718  E391  4C 74 A4    NREADY JMP READYX


04720  E394  20 53 E4    INIT   JSR INITV       ;GO INIT VECTORS
04721  E397  20 BF E3           JSR INITCZ      ;GO INIT CHARGET & Z-PAGE
04722  E39A  20 22 E4           JSR INITMS      ;GO PRINT INITILIZATION ME
SSAGES
04723  E39D  A2 FB              LDX #STKEND-256 ;SET UP END OF STACK
04724  E39F  9A                 TXS
04725  E3A0  D0 E4              BNE READY       ;JMP...READY




04727  E3A2  E6 7A       INITAT INC CHRGET+7
04728  E3A4  D0 02              BNE CHDGOT
04729  E3A6  E6 7B              INC CHRGET+8
04730  E3A8  AD 60 EA    CHDGOT LDA 60000
04731  E3AB  C9 3A              CMP #':
04732  E3AD  B0 0A              BCS CHDRTS
04733  E3AF  C9 20              CMP #' 
04734  E3B1  F0 EF              BEQ INITAT
04735  E3B3  38                 SEC
04736  E3B4  E9 30              SBC #'0
04737  E3B6  38                 SEC
04738  E3B7  E9 D0              SBC #$D0
04739  E3B9  60          CHDRTS RTS
04740  E3BA  80                 .BYT 128,79,199,82,88
04740  E3BB  4F 
04740  E3BC  C7 
04740  E3BD  52 
04740  E3BE  58 






04742  E3BF  A9 4C       INITCZ LDA #76
04743  E3C1  85 54              STA JMPER
04744  E3C3  8D 10 03           STA USRPOK
04745  E3C6  A9 48              LDA #<FCERR
04746  E3C8  A0 B2              LDY #>FCERR
04747  E3CA  8D 11 03           STA USRPOK+1






INIT......PAGE 0107

LINE# LOC   CODE        LINE


04748  E3CD  8C 12 03           STY USRPOK+2
04749  E3D0  A9 91              LDA #<GIVAYF
04750  E3D2  A0 B3              LDY #>GIVAYF
04751  E3D4  85 05              STA ADRAY2
04752  E3D6  84 06              STY ADRAY2+1
04753  E3D8  A9 AA              LDA #<FLPINT
04754  E3DA  A0 B1              LDY #>FLPINT
04755  E3DC  85 03              STA ADRAY1
04756  E3DE  84 04              STY ADRAY1+1
04757  E3E0  A2 1C              LDX #INITCZ-INITAT-1
04758  E3E2  BD A2 E3    MOVCHG LDA INITAT,X
04759  E3E5  95 73              STA CHRGET,X
04760  E3E7  CA                 DEX
04761  E3E8  10 F8              BPL MOVCHG
04762  E3EA  A9 03              LDA #STRSIZ
04763  E3EC  85 53              STA FOUR6
04764  E3EE  A9 00              LDA #0
04765  E3F0  85 68              STA BITS
04766  E3F2  85 13              STA CHANNL
04767  E3F4  85 18              STA LASTPT+1
04768  E3F6  A2 01              LDX #1
04769  E3F8  8E FD 01           STX BUF-3
04770  E3FB  8E FC 01           STX BUF-4
04771  E3FE  A2 19              LDX #TEMPST
04772  E400  86 16              STX TEMPPT
04773  E402  38                 SEC             ;READ BOTTOM OF MEMORY
04774  E403  20 9C FF           JSR $FF9C
04775  E406  86 2B              STX TXTTAB      ;NOW TXTAB HAS IT
04776  E408  84 2C              STY TXTTAB+1
04777  E40A  38                 SEC
04778  E40B  20 99 FF           JSR $FF99       ;READ TOP OF MEMORY
04779  E40E  86 37       USEDEF STX MEMSIZ
04780  E410  84 38              STY MEMSIZ+1
04781  E412  86 33              STX FRETOP
04782  E414  84 34              STY FRETOP+1
04783  E416  A0 00              LDY #0
04784  E418  98                 TYA
04785  E419  91 2B              STA (TXTTAB)Y
04786  E41B  E6 2B              INC TXTTAB
04787  E41D  D0 02              BNE INIT20
04788  E41F  E6 2C              INC TXTTAB+1
04789  E421  60          INIT20 RTS






04791  E422  A5 2B       INITMS LDA TXTTAB
04792  E424  A4 2C              LDY TXTTAB+1
04793  E426  20 08 A4           JSR REASON
04794  E429  A9 73              LDA #<FREMES
04795  E42B  A0 E4              LDY #>FREMES
04796  E42D  20 1E AB           JSR STROUT
04797  E430  A5 37              LDA MEMSIZ






INIT......PAGE 0108

LINE# LOC   CODE        LINE


04798  E432  38                 SEC
04799  E433  E5 2B              SBC TXTTAB
04800  E435  AA                 TAX
04801  E436  A5 38              LDA MEMSIZ+1
04802  E438  E5 2C              SBC TXTTAB+1
04803  E43A  20 CD BD           JSR LINPRT
04804  E43D  A9 60              LDA #<WORDS
04805  E43F  A0 E4              LDY #>WORDS
04806  E441  20 1E AB           JSR STROUT
04807  E444  4C 44 A6           JMP SCRTCH




04809  E447  8B E3       BVTRS  .WOR NERROR,NMAIN,NCRNCH,NQPLOP,NGONE,NEVA
L
04809  E449  83 A4 
04809  E44B  7C A5 
04809  E44D  1A A7 
04809  E44F  E4 A7 
04809  E451  86 AE 
04810  E453              ;
04811  E453  A2 0B       INITV  LDX #INITV-BVTRS-1 ;INIT VECTORS
04812  E455  BD 47 E4    INITV1 LDA BVTRS,X
04813  E458  9D 00 03           STA IERROR,X
04814  E45B  CA                 DEX
04815  E45C  10 F7              BPL INITV1
04816  E45E  60                 RTS
04817  E45F  00          CHKE0  .BYT $00




04819  E460  20 42       WORDS  .BYT ' BASIC BYTES FREE',13,0
04819  E471  0D 
04819  E472  00 
04820  E473  93          FREMES .BYT 147,13,'    **** COMMODORE 64 BASIC V
2 ****'
04820  E474  0D 
04820  E475  20 20 
04821  E498  0D                 .BYT 13,13,' 64K RAM SYSTEM  ',0
04821  E499  0D 
04821  E49A  20 36 
04821  E4AB  00 
04822  E4AC              .END
04823  E4AC              .END


ERRORS = 00000


SYMBOL TABLE

SYMBOL VALUE
 ABS      BC58    ADDEND   0028    ADDFRS   A3B0    ADDIND   B320
 ADDON    A8FB    ADDPR2   0002    ADDPR4   0004    ADDPR8   0008








SYMBOL TABLE

SYMBOL VALUE
 ADDPRC   0001    ADRAY1   0003    ADRAY2   0005    AFFRTS   A637
 ANDMSK   0049    ANDOP    AFE9    ARGEXP   0069    ARGHO    006A
 ARGLO    006D    ARGMO    006C    ARGMOH   006B    ARGSGN   006E
 ARISGN   006F    ARYGET   B5AE    ARYPNT   0058    ARYSTR   B5B0
 ARYTAB   002F    ARYVA2   B56E    ARYVA3   B572    ARYVAR   B566
 ARYVGO   B57D    ASC      B78B    ASPAC    AB0E    ATN      E30E
 ATN1     E316    ATN2     E324    ATN3     E337    ATN4     E33D
 ATNCON   E33E    AYINT    B1BF    BIGGES   BE32    BITS     0068
 BLANK0   0000    BLT1     A3DC    BLTLP    A3E8    BLTU     A3B8
 BLTUC    A3BF    BRKTXT   A381    BSERR    B245    BSERR7   B308
 BUF      0200    BUFFUL   ABEA    BUFLEN   0059    BUFOFS   0200
 BUFPAG   0002    BUFPTR   0071    BVTRS    E447    CAT      B63D
 CCALL    FFE7    CCLOS    E1C7    CGETL    E124    CHANNL   0013
 CHARAC   0007    CHDGOT   E3A8    CHDRTS   E3B9    CHEAD    A53C
 CHKCLS   AEF7    CHKCOM   AEFD    CHKE0    E45F    CHKERR   AD99
 CHKNUM   AD8D    CHKOK    AD96    CHKOPN   AEFA    CHKSTR   AD8F
 CHKVAL   AD90    CHRD     B6EC    CHRGET   0073    CHRGOT   0079
 CHRRTS   008A    CKSMA0   BF52    CLD10    E16F    CLD20    E194
 CLD50    E195    CLD55    E19E    CLD60    E1A1    CLD70    E1B5
 CLEAR    A65E    CLEARC   A660    CLEART   A663    CLMWID   000A
 CLOAD    E168    CLRFAC   BCE9    CLSCHN   FFCC    CMD      AA86
 CMPFOR   A3A4    CMPSPC   A58E    COIN     E11E    COLIS    A5DC
 COMBYT   B7F1    COMPRT   AAE8    CONINT   B7A1    CONT     A857
 CONTRT   A870    CONUPK   BA8C    COOUT    E118    COPEN    E1BE
 COPFLT   A9D6    COPSTR   A9D9    COPY     AA52    COPYC    AA68
 COS      E264    COSC     E2DC    COUNT    000B    CRDO     AAD7
 CRDONE   A609    CRFIN    AAE5    CRTSKP   AB42    CRUNCH   A579
 CSAVE    E156    CSYS     E12A    CSYSRZ   E146    CURLIN   0039
 CURTOL   0071    CVERF    E165    CZLOOP   A544    DATA     A8F8
 DATAN    A906    DATATK   0083    DATBK    AC4D    DATBK1   AC51
 DATLIN   003F    DATLOP   ACB8    DATPTR   0041    DECBLT   A3F3
 DECCNT   005D    DECCUR   B2CD    DEF      B3B3    DEFFIN   B44F
 DEFPNT   004E    DEFSTF   B418    DEGREE   0067    DIM      B081
 DIM3     B07E    DIMFLG   000C    DIMRTS   B34B    DIRCN1   A7CE
 DIRCON   A7BE    DIRIS    A849    DIV10    BAFE    DIVIDE   BB29
 DIVNRM   BB7E    DIVSUB   BB5D    DNTCPY   AA4B    DOAGIN   AB6B
 DOCMP    B072    DOCO     A948    DOCOND   A940    DOCSTR   AD97
 DOMASK   0012    DOMIN    AF0D    DOPRE1   AE20    DOPREC   ADF9
 DOREL    B016    DORES    000F    DOSGFL   B81B    DPTFLG   005F
 DSCPNT   0050    DSCTMP   0061    DV0ERR   BB8A    DVAR     B5C7
 DVAR2    B5DC    DVAR3    B5E6    DVARS    B5BD    DVARTS   B5F6
 EATEM    B0B0    END      A831    ENDCHR   0008    ENDCON   A84B
 ENDREL   ADD7    ENDTK    0080    EORMSK   004A    EPSGN    0060
 EQULTK   00B2    ERBRK    001E    EREXIT   E0F9    EREXIX   E104
 EREXIY   E109    ERLOAD   001D    ERR      A369    ERR01    A19E
 ERR02    A1AC    ERR03    A1B5    ERR04    A1C2    ERR05    A1D0
 ERR06    A1E2    ERR07    A1F0    ERR08    A1FF    ERR09    A210
 ERR10    A225    ERR11    A235    ERR12    A23B    ERR13    A24F
 ERR14    A25A    ERR15    A26A    ERR16    A272    ERR17    A27F
 ERR18    A290    ERR19    A29D    ERR20    A2AA    ERR21    A2BA
 ERR22    A2C8    ERR23    A2D5    ERR24    A2E4    ERR25    A2ED
 ERR26    A300    ERR27    A30E    ERR28    A31E    ERR29    A324
 ERR30    A383    ERRBD    0018    ERRBS    0012    ERRCN    001A
 ERRCRD   A44E    ERRDD    0013    ERRDIR   B3A6    ERRDVO   0014
 ERRFC    000E    ERRFIN   A469    ERRGO2   B4D2    ERRGO3   B24A








SYMBOL TABLE

SYMBOL VALUE
 ERRGO4   AD9B    ERRGO5   AD32    ERRGUF   B3AE    ERRID    0015
 ERRLS    0017    ERRNF    000A    ERROD    000D    ERROM    0010
 ERROR    A437    ERROV    000F    ERRRG    000C    ERRSN    000B
 ERRST    0019    ERRTAB   A328    ERRTM    0016    ERRUF    001B
 ERRUS    0011    ERVFY    001C    EVAL     AE83    EVAL0    AE8A
 EVAL1    AE8F    EVAL2    AE92    EVAL3    AECC    EVAL4    AEE3
 EXCHQT   A911    EXIGNT   ACFC    EXP      BFED    EXP1     E00E
 EXPCON   BFC4    EXPSGN   0060    FAC      0061    FACEXP   0061
 FACHO    0062    FACLO    0065    FACMO    0064    FACMOH   0063
 FACOV    0070    FACSGN   0066    FADD     B867    FADD1    B897
 FADD2    B8FE    FADD4    B8A3    FADD5    B862    FADDA    B893
 FADDC    B877    FADDH    B849    FADDT    B86A    FADFLT   B8D2
 FBUFFR   0100    FBUFPT   0071    FCERR    B248    FCERR2   AA24
 FCOMP    BC5B    FCOMPC   BC92    FCOMPD   BC98    FCOMPN   BC5D
 FCOMPS   BC31    FCSIGN   BC2F    FDCEND   BF3A    FDECPT   0047
 FDIV     BB0F    FDIVF    BB07    FDIVT    BB12    FFLOOP   A38F
 FFRTS    A3B7    FHALF    BF11    FIN      BCF3    FIN1     BD0F
 FINC     BD0A    FINDG1   BD71    FINDGQ   BD0D    FINDIG   BD6A
 FINDIV   BD52    FINDP    BD41    FINE     BD47    FINE1    BD49
 FINEC    BD30    FINEC1   BD2E    FINEC2   BD35    FINEDG   BD91
 FINGO    AFD6    FINI     A52A    FININ1   A576    FININL   AACA
 FINLOG   BD7E    FINML6   BAED    FINMUL   BD5B    FINNOW   B18F
 FINPTR   B185    FINQNG   BD62    FINRE2   AE11    FINREL   AE07
 FINZLP   BCF7    FLINRT   A640    FLNRTS   A641    FLOAD    A677
 FLOAT    BC3C    FLOATB   BC4F    FLOATC   BC49    FLOATS   BC44
 FLPINT   B1AA    FMAPTR   B194    FMULT    BA28    FMULTT   BA2B
 FNDFOR   A38A    FNDLIN   A613    FNDLNC   A617    FNDLO1   A62E
 FNDOER   B3F4    FNDVAR   B52A    FNEDG1   BD33    FNTK     00A5
 FNWAIT   B82D    FONE     B9BC    FOR      A742    FORPNT   0049
 FORPSH   AE43    FORSIZ   0012    FORTK    0081    FOULDY   BEC4
 FOUR6    0053    FOUT     BDDD    FOUT1    BDE7    FOUT11   BEC6
 FOUT12   BED3    FOUT14   BEE3    FOUT15   BEEF    FOUT16   BE64
 FOUT17   BF07    FOUT19   BF04    FOUT2    BE6A    FOUT20   BF0C
 FOUT3    BE16    FOUT37   BE00    FOUT38   BE21    FOUT39   BE53
 FOUT4    BE0B    FOUT40   BE90    FOUT41   BE8E    FOUT5    BE2F
 FOUT6    BE48    FOUT7    BE09    FOUT8    BE66    FOUT9    BE28
 FOUTBL   BF16    FOUTC    BDDF    FOUTIM   BE68    FOUTPI   BE47
 FOUTYP   BE97    FPWR1    BF9E    FPWRT    BF7B    FPWRT1   BF84
 FR4      E2EA    FRE      B37D    FREFAC   B6A6    FREMES   E473
 FREPLA   B6D5    FRERTS   B6EB    FRESPC   0035    FRESTR   B6A3
 FRETMP   B6AA    FRETMS   B6DB    FRETOP   0033    FRETRT   B6D6
 FRMEV1   ADA4    FRMEVL   AD9E    FRMNUM   AD8A    FSUB     B850
 FSUBT    B853    FUNDSP   A052    GARBA2   B526    GARBAG   B516
 GARBFL   000F    GET      AB7B    GETADR   B7F7    GETAGN   ABD6
 GETBPT   A5C7    GETBYT   B79E    GETCMP   B066    GETCON   B818
 GETDEF   B2EA    GETDTL   AB57    GETERR   A456    GETFNM   B3E1
 GETFOR   AD24    GETNTH   AC4A    GETNUM   B7EB    GETSPA   B4F4
 GETSPT   AA2C    GETSTK   A3FB    GETTIM   AF84    GETTTY   AB92
 GINLIN   AC03    GIVAYF   B391    GLET     A804    GMOVMF   E0F6
 GOBADV   B138    GOFLOT   B07B    GOFUC    B798    GOGO     B5B8
 GOLST    A6A4    GOMLDV   E00B    GOMOVF   AFA0    GONE     A7E1
 GONE2    A7EF    GONE3    A7ED    GONPRC   AF0F    GOOO     AF5D
 GOOOOO   AF6E    GOOVER   BADF    GORDY    A854    GORTS    A8D1
 GOSUB    A883    GOSUTK   008D    GOTARY   B24D    GOTK     00CB
 GOTNUM   AA27    GOTO     A8A0    GOTOTK   0089    GRBPAS   B606








SYMBOL TABLE

SYMBOL VALUE
 GRBPNT   004E    GRBRTS   B601    GRBTOP   005F    GREASE   B2B9
 GREATK   00B1    GRODY    A714    GTBYTC   B79B    HAVFOR   AD35
 HIGHDS   0058    HIGHTR   005A    ICRNCH   0304    IERROR   0300
 IEVAL    030A    IF       A928    IGONE    0308    IMAIN    0302
 INCFAC   B96F    INCFRT   B97D    INCHR    E112    INCRND   BC23
 INDEX    0022    INDEX1   0022    INDEX2   0024    INDICE   0064
 INDLOP   B1DB    INIT     E394    INIT20   E421    INITAT   E3A2
 INITCZ   E3BF    INITMS   E422    INITV    E453    INITV1   E455
 INLIN    A560    INLINC   A562    INLOOP   AC15    INLPN1   B30F
 INLPN2   B30E    INLPNM   B2F2    INPCO1   AC0F    INPCOM   A9DA
 INPCON   AC0D    INPFLG   0011    INPPTR   0043    INPRT    BDC2
 INPRTS   ACFB    INPUT    ABBF    INPUTN   ABA5    INT      BCCC
 INTEGR   0007    INTERR   B09C    INTFLG   000E    INTIDX   B1B2
 INTRTS   BCF2    INTXT    A371    IODONE   ABB5    IORELE   ABB7
 IQPLOP   0306    ISARY    B1D1    ISCNTC   A82C    ISCRTS   A82B
 ISFUN    AFA7    ISLETC   B113    ISLRTS   B11C    ISSEC    B0AF
 ISVAR    AF28    ISVRET   AF2B    JERXIT   E1D1    JMPER    0054
 JSRGM    B1A0    KLOOP    A582    KLOOP1   A5A4    LASNUM   00C7
 LASTPT   0017    LD100    BB7A    LDFONE   A78B    LDZR     B123
 LEFTD    B700    LEN      B77C    LEN1     B782    LESSTK   00B3
 LET      A9A5    LINGET   A96B    LINLEN   0028    LINNUM   0014
 LINPRT   BDCD    LIST     A69C    LIST4    A6C9    LNKPRG   A533
 LNKRTS   A55F    LOFBUF   00FF    LOG      B9EA    LOG1     B9F4
 LOG2     B9E5    LOGCN2   B9C1    LOGEB2   BFBF    LOGERR   B9F1
 LOOPDN   AD78    LOPFDA   B21C    LOPFDV   B228    LOPFN    B0FB
 LOPFND   B0F1    LOPPTA   B286    LOPREL   ADBB    LOWDS    005D
 LOWTR    005F    LPOPER   ADA9    LSTEND   A6BB    LSTPNT   0049
 LUK4IT   A8BC    LUKALL   A8C0    MAIN     A480    MAIN1    A49C
 MEMSIZ   0037    MID2     B748    MIDD     B737    MINUTK   00AB
 MLDEXP   BAB9    MLDVEX   BAD4    MLEX10   BDA0    MLEXMI   BDAE
 MLOOP    A4DF    MLTPL1   BA5E    MLTPL2   BA61    MLTPL3   BA7D
 MLTPLY   BA59    MORCO1   AAEE    MOREN1   A3EC    MORLIN   A971
 MORSTS   A807    MOV1F    BBCA    MOV2F    BBC7    MOVAF    BC0C
 MOVAFL   BC11    MOVCHG   E3E2    MOVDO    B68C    MOVEF    BC0F
 MOVFA    BBFC    MOVFA1   BBFE    MOVFAL   BC02    MOVFM    BBA2
 MOVFR    BB8F    MOVINS   B67A    MOVLP    B690    MOVMF    BBD4
 MOVRTS   BC1A    MOVSTR   B688    MOVVF    BBD0    MUL10    BAE2
 MUL10R   BAF8    MULDIV   BAB7    MULSHF   B983    MULTRT   BA8B
 MUSTCR   A5AC    MVDONE   B699    MVSTRT   B6A2    N0999    BDB3
 N32768   B1A5    N9999    BDB8    NCMPOS   001E    NCRNCH   A57C
 NEGFAC   B947    NEGFCH   B94D    NEGHLF   B9E0    NEGOP    BFB4
 NEGPRC   ADFA    NEGRTS   BFBE    NEGTAB   A095    NEGXQS   BD67
 NERROR   E38B    NERROX   A43A    NEVAL    AE86    NEWCHR   AA9D
 NEWSGO   AD75    NEWSTT   A7AE    NEXT     AD1E    NGONE    A7E4
 NGONE1   A7E7    NMAIN    A483    NMARY1   B237    NMIL     BDBD
 NODATT   A5DE    NODEL    A4ED    NODELC   A508    NOFREF   B384
 NOML6    AA07    NONONO   B1CC    NORM1    B929    NORM2    B91D
 NORM3    B8DB    NORMAL   B8D7    NOSEC    B0BA    NOTABR   AB13
 NOTDIM   B296    NOTEVE   B159    NOTEVL   B128    NOTFDD   B261
 NOTFL1   B331    NOTFLT   B274    NOTFNS   B11D    NOTIT    B109
 NOTOL    A753    NOTOP    AED4    NOTQTI   ABCE    NOTSTR   B0C4
 NOTTAB   A098    NOTTK    00A8    NOWGE1   AC7D    NOWGET   AC72
 NOWLIN   ACD1    NQPLOP   A71A    NREADY   E391    NTHIS    A5F5
 NTHIS1   A5F9    NUMINS   AC89    NUMLEV   0017    NXTCMP   B05B
 NXTLGC   A99F    OKGOTO   A937    OKMSG    A364    OKNORM   AFD1








SYMBOL TABLE

SYMBOL VALUE
 OLDLIN   003B    OLDOV    0056    OLDTXT   003D    OMERR    A435
 OMERR1   B30B    ONEFUN   00B4    ONEON    A79F    ONGLOP   A957
 ONGLP1   A95F    ONGOTO   A94B    ONGRTS   A96A    OPMASK   004D
 OPPTR    004B    OPTAB    A080    OROP     AFE6    OUTCH    E10C
 OUTDO    AB47    OUTQST   AB45    OUTRTS   AB4A    OUTSPC   AB3B
 OVERR    B97E    PANIC    E37B    PAOC     E219    PAOC15   E257
 PAOC20   E206    PAOC30   E20E    PAOC32   E211    PAOC40   E216
 PAOC5    E23F    PAOC7    E251    PAOCX    E20D    PARCHK   AEF1
 PATCHS   BF53    PEEK     B80D    PI       00FF    PI2      E2E0
 PIVAL    AEA8    PLOOP    A6F3    PLOOP1   A700    PLOT     FFF0
 PLSV     E1D4    PLSV7    E200    PLUSTK   00AA    POKE     B824
 POKER    0014    POLY     E059    POLY1    E05D    POLY2    E070
 POLY3    E06C    POLY4    E07D    POLYPT   0071    POLYX    E043
 POS      B39E    POSINT   B1B8    PREAM    B761    PRINT    AAA0
 PRINTC   AAA2    PRINTK   0099    PRINTN   AA80    PRIT3    A737
 PRIT4    A6EF    PRTRTS   AAE7    PTDORL   A09B    PTRGET   B08B
 PTRGT1   B090    PTRGT2   B092    PTRGT3   B09F    PULMOR   B725
 PULSTK   AE66    PUSHF    AE38    PUSHF1   AE33    PUTNEW   B4CA
 PUTNW1   B4D5    Q        007F    QCHNUM   AE5D    QCOMP    B061
 QDATA    AC41    QDECT1   A4D7    QDOT     AEAD    QINLIN   ABF9
 QINT     BC9B    QINT1    BCBB    QINTGO   B1CE    QINTGR   A9C2
 QINTRT   BCBA    QISHFT   BCAF    QNUM     0080    QOP      AE58
 QOPGO    AE5B    QOPRTS   AE80    QPLOP    A717    QPLUS    BD06
 QPREC    ADF0    QPREC1   AE19    QSETNR   E0BE    QSHFT    BB4C
 QSTATV   AF92    QSTAVR   B13B    QVARIA   AA3D    RADDC    E092
 RDBAS    FFF3    RDTIM    FFDE    READ     AC06    READST   FFB7
 READY    E386    READYX   A474    REARTS   A434    REASAV   A416
 REASON   A408    REASTO   A421    REDDY    A376    REM      A93B
 REMER    A919    REMN     A909    REMRTS   A905    REMTK    008F
 RESCON   A5B8    RESCR1   A72F    RESER    A5B6    RESETC   AC71
 RESFIN   A827    RESHO    0026    RESLO    0029    RESLST   A09E
 RESMO    0028    RESMOH   0027    RESRCH   A72C    RESTOR   A81D
 RETU1    A8EB    RETURN   A8D2    RIGHTD   B72C    RLEFT    B706
 RLEFT1   B70C    RLEFT2   B70D    RLEFT3   B70E    RMULC    E08D
 RND      E097    RND1     E0D3    RNDRTS   B946    RNDSHF   B938
 RNDX     008B    ROLSHF   B9B0    ROMLOC   A000    ROUND    BC1B
 RUN      A871    RUNC     A659    RUNC2    A897    SAREG    030C
 SAVEIT   AA90    SAVQUO   BB3F    SCRATH   A642    SCRATK   00A2
 SCRTCH   A644    SETMSG   FF90    SETQUT   AC65    SETTIM   FFDB
 SGN      BC39    SGNFLG   0067    SHFARG   BB4F    SHFTR2   B985
 SHFTR3   B9A6    SHFTR4   B9AC    SHFTRT   B9BA    SHIFTR   B999
 SIGN     BC2B    SIGNRT   BC38    SIN      E26B    SIN1     E29D
 SIN2     E2A0    SIN3     E2AD    SINCON   E2EF    SIZE     0055
 SIZEOK   B65D    SNERR    AF08    SNERR1   A80B    SNERR2   A8E8
 SNERR3   A953    SNERR4   AB5F    SNERR5   AE30    SNERRX   A80E
 SNGFLT   B3A2    SPCTK    00A6    SPREG    030F    SQR      BF71
 SQR05    B9D6    SQR20    B9DB    SQUEEZ   B936    ST2TXT   B7E2
 STASGN   B056    STCURL   AB5B    STEPTK   00A9    STKEND   01FB
 STKINI   A67A    STKRTS   A68D    STMDSP   A00C    STOLD    E000
 STOLDX   BFFD    STOLOP   A522    STOML1   B337    STOMLT   B27D
 STOP     A82F    STOPC    A832    STORDO   B83C    STPEND   A841
 STR1     A5E5    STRCMP   B02E    STRCP    B4BF    STRD     B465
 STRDN2   AC91    STRDON   AA9A    STREND   0031    STRFI1   B4A8
 STRFI2   B4A9    STRFIN   B4A4    STRFRE   B50B    STRGET   B497
 STRINI   B475    STRLIT   B487    STRLT2   B48D    STRNAM   B0DB








SYMBOL TABLE

SYMBOL VALUE
 STRNEX   E0E3    STRNG    A5EE    STRNG1   006F    STRNG2   0071
 STRNGI   006F    STROU2   BDDA    STROUT   AB1E    STRPR2   AB28
 STRPRT   AB21    STRRTS   AF5C    STRSIZ   0003    STRSPA   B47D
 STRST2   B4B5    STRTX2   AEC6    STRTXT   AEBD    STUFFH   A5C9
 STXBUF   BEB2    STXFND   B0EF    STXFOR   AD27    STXTPT   A68E
 SUBFLG   0010    SUBIT    B8AF    SVAR     B559    SVARGO   B561
 SVARS    B54D    SWAPLP   E01E    SXREG    030D    SYNCHR   AEFF
 SYREG    030E    TABER    AAF8    TABTK    00A3    TAN      E2B4
 TANSGN   0012    TEMPF1   0057    TEMPF2   005C    TEMPF3   004E
 TEMPPT   0016    TEMPST   0019    TENC     BAF9    TENEXP   005E
 THENTK   00A7    TIMELP   A9ED    TIMEND   BF52    TIMNUM   AA1D
 TIMSTR   B46F    TOTK     00A4    TRMNO1   AB62    TRMNOK   AB4D
 TRMOK    AC9D    TRMPOS   0009    TRYAG2   B4F6    TRYAG3   B501
 TRYAGN   AD0C    TRYMOR   A412    TRYOFF   BAC4    TSTDUN   A6E6
 TSTOP    ADB8    TSTR10   AF27    TSTROM   AF14    TURNON   B0D4
 TVAR     B544    TWOPI    E2E5    TXTPTR   007A    TXTTAB   002B
 TYPLIN   A6E8    UMLCNT   B378    UMLRTS   B37C    UMULT    B34C
 UMULTC   B35F    UMULTD   B355    UNPRTS   AE82    UNPSTK   AE64
 USEDEF   E40E    USERR    A8E3    USRLOC   A058    USRPOK   0310
 VAL      B7AD    VAL2     B7CD    VALRTS   B7EA    VALTYP   000D
 VAREND   ACDF    VARNAM   0045    VAROK    B143    VARPNT   0047
 VARTAB   002D    VARTXT   004B    VARY0    ACEA    VERCK    000A
 WAITER   B840    WORDS    E460    XSPAC    AB0F    XSPAC1   AB19
 XSPAC2   AB10    ZEREMV   BADA    ZERITA   B2C8    ZERO     BF13
 ZEROF1   B8F9    ZEROFC   B8F7    ZEROML   B8FB    ZERRTS   B848
 ZZ1      01FF    ZZ2      0201    ZZ3      0202    ZZ4      01FF
 ZZ5      01FF    ZZ6      AF2A   

END OF ASSEMBLY
NOLIST......PAGE 0001

LINE# LOC   CODE        LINE


00003  0000              .FIL   BASIC
00004  0000              .LIB   DISCLAIMER
00051  0000              .END
00052  0000              .LIB   DECLARE
00196  0314              .END
00197  0314              .LIB   TOKENS
00325  A129              .END
00326  A129              .LIB   TOKEN2
00578  A435              .END
00579  A435              .LIB   CODE1
00752  A579              .END
00753  A579              .LIB   CODE2
00913  A69C              .END
00914  A69C              .LIB   CODE3
01053  A7AE              .END
01054  A7AE              .LIB   CODE4
01197  A8C9              .END
01198  A8C9              .LIB   CODE5
01347  A9ED              .END
01348  A9ED              .LIB   CODE6
01496  AB19              .END
01497  AB19              .LIB   CODE7
01644  AC51              .END
01645  AC51              .LIB   CODE8
01791  AD92              .END
01792  AD92              .LIB   CODE9
01993  AF14              .END
01994  AF14              .LIB   CODE10
02175  B068              .END
02176  B068              .LIB   CODE11
02347  B1A5              .END
02348  B1A5              .LIB   CODE12
02502  B2C4              .END
02503  B2C4              .LIB   CODE13
02656  B3D7              .END
02657  B3D7              .LIB   CODE14
02865  B555              .END
02866  B555              .LIB   CODE15
03024  B680              .END
03025  B680              .LIB   CODE16
03189  B79E              .END
03190  B79E              .LIB   CODE17
03351  B8E5              .END
03352  B8E5              .LIB   CODE18
03478  B9EA              .END
03479  B9EA              .LIB   CODE19
03692  BB8F              .END
03693  BB8F              .LIB   CODE20
03837  BC9B              .END
03838  BC9B              .LIB   CODE21
03982  BDB3              .END
03983  BDB3              .LIB   CODE22
04133  BEE1              .END
04134  BEE1              .LIB   CODE23
04216  BFBF              .END
04217  BFBF              .LIB   CODE24
04241  C000              .END
04242  C000              .LIB   CODE25
04365  E0F9              .END
04366  E0F9              .LIB   CODE26
04604  E264              .END
04605  E264              .LIB   TRIG
04707  E37B              .END
04708  E37B              .LIB   INIT
04825  E4AC              .END
ERRORS = 00000

END OF ASSEMBLY

CROSS REFERENCE......PAGE    1


  ABS    $BC58   240  3801
  ADDEND $0028    94  2570  2584  2587  2604  2607
  ADDFRS $A3B0   495   499
  ADDIND $B320  2550  2557
  ADDON  $A8FB  1227  1261  1601  1709
  ADDPR2 $0002  3361  3362  3362  4020  4043  4045
  ADDPR4 $0004  3362  3363  3363
  ADDPR8 $0008  3363  3364  3843  3867
  ADDPRC $0001    54   557   564   566  1010  1750  1756  1766  1768  1768

                1770  1770  1772  1772  1774  1774  1778  1778  2259  2300

                2861  2889  3329  3330  3332  3333  3361  3361  3438  3559

                3634  3706  3735  3756  3764  3887  4020  4043  4045  4071

                4074  4262  4306
  ADRAY1 $0003    66  4758  4759
  ADRAY2 $0005    67  4754  4755
  AFFRTS $A637   849   855
  ANDMSK $0049   115  3264  3273  4515  4541  4547  4576  4585  4595
  ANDOP  $AFE9   272  2112
  ARGEXP $0069   156  1908  2139  2140  3294  3295  3322  3324  3578  3581

                3757  3766  4184  4263  4266
  ARGHO  $006A   157  1910  2137  2138  3382  3546  3575  3636  3660  3674

                3676
  ARGLO  $006D   160  1916  3373  3537  3561  3645  3657  3665  3667
  ARGMO  $006C   159  1914  2151  2152  2154  2155  2174  3376  3540  3564

                3642  3658  3668  3670
  ARGMOH $006B   158  1912  3379  3543  3567  3639  3659  3671  3673
  ARGSGN $006E   161  1918  2135  3283  3303  3570  3573  3754  3958  4190

                4613
  ARISGN $006F   163   179  1920  3284  3319  3572  3594  3611  3621  3960

                4277  4618
  ARYGET $B5AE  2914  2916
  ARYPNT $0058   131  2344  2345  2488  2490  2493  2508  2510  2513  2574

                2577  2876  2877  2880  2881  2897  2898  2901  2902  2917

                2919
  ARYSTR $B5B0  2917  2922
  ARYTAB $002F   100   886   887  2245  2247  2291  2292  2309  2310  2408

                2409  2870  2872
  ARYVA2 $B56E  2880  2904  2906
  ARYVA3 $B572  2882  2920
  ARYVAR $B566  2873  2876
  ARYVGO $B57D  2883  2887
  ASC    $B78B   256  3181
  ASPAC  $AB0E  1477  1490
  ATN    $E30E   251  4670
  ATN1   $E316  4672  4674
  ATN2   $E324  4677  4681
  ATN3   $E337  4686  4690
  ATN4   $E33D  4691  4693
  ATNCON $E33E  4681  4682  4694
  AYINT  $B1BF  1328  1963  2114  2122  2351  2360
  BIGGES $BE32  4025  4039
  BITS   $0068   155  3446  3848  3855  3864  4768
* BLANK0 $0000    65
  BLT1   $A3DC   523   526
  BLTLP  $A3E8   532   535
  BLTU   $A3B8   505   688  2305







CROSS REFERENCE......PAGE    2


  BLTUC  $A3BF   508  2981
  BRKTXT $A381   476  1135  1136
  BSERR  $B245  2433  2444  2544
  BSERR7 $B308  2539  2544
  BUF    $0200    59   676   691   692   699   743   799   800   817   829

                 831  1453  1454  1557  1559  1562  1587  1596  1632  1633

                4772  4773
  BUFFUL $ABEA  1590  1593  1596
  BUFLEN $0059    57   745
  BUFOFS $0200   755   760   789   812   827
  BUFPAG $0002    58  1059  2784  4475  4493
  BUFPTR $0071   165   781   796
  BVTRS  $E447  4812  4814  4815
  CAT    $B63D  1836  2992
  CCALL  $FFE7   879  4391
  CCLOS  $E1C7   235  4514
  CGETL  $E124  1631  4406
  CHANNL $0013    83   592  1427  1457  1461  1516  1536  1555  1565  1571

                1574  1577  1589  1598  1602  1638  1723  4712  4769
  CHARAC $0007    69  1237  1241  1242  1287  1305  1655  1657  1661  2757

                2767
  CHDGOT $E3A8  4731  4733
  CHDRTS $E3B9  4735  4742
  CHEAD  $A53C   711   730
  CHKCLS $AEF7  1978  2401  2647  3154
  CHKCOM $AEFD  1692  1982  2085  2190  3138  3232  4564
* CHKE0  $E45F  4820
  CHKERR $AD99  1795  1798
  CHKNUM $AD8D  1026  1787  1845  1902  2109  2357  2646  2671  2678  2739

  CHKOK  $AD96  1796  1797
  CHKOPN $AEFA  1976  1980  2083  2642
  CHKSTR $AD8F  1789  2086  2997  3050
  CHKVAL $AD90  1323  1790  2133
  CHRD   $B6EC   257  3092
  CHRGET $0073   170   622   926  1043  1084  1098  1105  1276  1309  1494

                1551  1647  1784  1827  1927  1938  1986  2080  2207  2212

                2232  2355  3188  3898  3904  3916  4730  4732  4762
  CHRGOT $0079   171   922  1040  1173  1253  1262  1432  1627  1677  1690

                1710  1781  1814  2193  2197  2200  2397  2716  3135  3197

                3220  3266  4556  4565
* CHRRTS $008A   174
* CKSMA0 $BF52  4176
* CLD10  $E16F  4453
  CLD20  $E194  4476  4481  4517
  CLD50  $E195  4463  4486
  CLD55  $E19E  4470  4490
  CLD60  $E1A1  4488  4492
  CLD70  $E1B5  4494  4505
  CLEAR  $A65E   231   878
  CLEARC $A660   879  1159
  CLEART $A663   880  4375
  CLMWID $000A    61  1473
  CLOAD  $E168   222  4449
  CLRFAC $BCE9  3841  3880
  CLSCHN $FFCC   590  1575  4381  4710
  CMD    $AA86   232  1420  1422







CROSS REFERENCE......PAGE    3


  CMPFOR $A3A4   489   494
  CMPSPC $A58E   761   766
  COIN   $E11E  1556  1572  4400
  COLIS  $A5DC   804   807
  COMBYT $B7F1  3232  3268
  COMPRT $AAE8  1441  1468
  CONINT $B7A1  3092  3193
  CONT   $A857   229  1140
  CONTRT $A870  1121  1140  1152
  CONUPK $BA8C  3279  3289  3509  3557  3624
  COOUT  $E118  1428  4396
  COPEN  $E1BE   234  4509
  COPFLT $A9D6  1326  1336
  COPSTR $A9D9  1324  1337
  COPY   $AA52  1390  1393  1397
  COPYC  $AA68  1396  1407
  COS    $E264   248  4607
  COSC   $E2DC  4655  4659
  COUNT  $000B    73   632   681   697   783   795   821  2113  2116  2119

                2124  2126  2129  2131  2337  2400  2441  2462  2486  2527

                2559
  CRDO   $AAD7   593   942  1433  1459
  CRDONE $A609   801   829
  CRFIN  $AAE5  1462  1466  1513
  CRTSKP $AB42  1517  1520
  CRUNCH $A579   628   631   756
  CSAVE  $E156   223  4438
  CSYS   $E12A   233  4416
  CSYSRZ $E146  4418  4420  4429
  CURLIN $0039   105   607   626  1020  1022  1074  1077  1124  1129  1130

                1150  1151  1167  1169  1179  1181  1219  1221  1533  1534

                1769  1771  2633  3991  3992
  CURTOL $0071   168  2449  2461  2483  2484  2501  2505  2511  2529  2530

                2547  2548  2558  2561  2599  2600
  CVERF  $E165   224  4446
  CZLOOP $A544   715   717
  DATA   $A8F8   206  1226  1595  2662
  DATAN  $A906  1012  1226  1234  1600  1694
  DATATK $0083   288   805  1712
  DATBK  $AC4D  1636  1642
  DATBK1 $AC51  1628  1647  1714
  DATLIN $003F   108  1531  1532  1704  1708
  DATLOP $ACB8  1637  1694  1713
  DATPTR $0041   109  1115  1116  1607  1608
  DECBLT $A3F3   518   538
  DECCNT $005D   136  2036  2589  2610  3888  3929  3947  4021  4033  4036

                4041  4053  4102
  DECCUR $B2CD  2506  2510
  DEF    $B3B3   225  2640
  DEFFIN $B44F  2663  2723
  DEFPNT $004E   123  2669  2670  2673  2675  2680  2682  2684  2688  2702

                2705  2713  2715  2725  2728  2731  2734  2737
  DEFSTF $B418  2692  2695
  DEGREE $0067   153  4294  4314
  DIM    $B081   209  2191
  DIM3   $B07E  2190  2194







CROSS REFERENCE......PAGE    4


  DIMFLG $000C    74  2198  2368  2407  2438  2469  2523
  DIMRTS $B34B  2524  2581  2635
  DIRCN1 $A7CE  1070  1072
  DIRCON $A7BE  1061  1064
  DIRIS  $A849  1126  1133
  DIV10  $BAFE  3617  3933  4035
  DIVIDE $BB29  3636  3662
  DIVNRM $BB7E  3653  3681
  DIVSUB $BB5D  3656  3664
  DNTCPY $AA4B  1381  1386  1389  1394
  DOAGIN $AB6B  1537  1540
  DOCMP  $B072  2171  2173  2181  2183
  DOCO   $A948  1263  1265
  DOCOND $A940  1259  1262
  DOCSTR $AD97  1794  1797
  DOMASK $0012    81  1906  2186
  DOMIN  $AF0D  1947  1989
  DOPRE1 $AE20  1847  1867
  DOPREC $ADF9  1846  1866
  DOREL  $B016   280  2133
  DORES  $000F    78   759   771   807   938   961   963   981
* DOSGFL $B81B  3253
  DPTFLG $005F   139  3924  3925  3945
  DSCPNT $0050   124  1400  1401  1407  1408  1411  1414  1417  2749  2750

                3011  3012  3104  3107  3114  3115  3130  3147  3164  3166

  DSCTMP $0061   144  1405  1406  2148  2149  2150  2158  2162  2178  2752

                2753  2754  2761  2762  2774  2796  2798  2800  3099
  DV0ERR $BB8A  3625  3690
  DVAR   $B5C7  2859  2921  2929
  DVAR2  $B5DC  2937  2941
  DVAR3  $B5E6  2943  2946
  DVARS  $B5BD  2874  2923
  DVARTS $B5F6  2924  2927  2930  2938  2940  2942  2945  2954
  EATEM  $B0B0  2212  2213  2215
  END    $A831   203  1120
  ENDCHR $0008    70   768   811   814  1239  1240  1243  1246  1664  2758

                2769
  ENDCON $A84B  1071  1135
  ENDREL $ADD7  1817  1819  1829
  ENDTK  $0080   283  1088  1090  1103
  EORMSK $004A   117  3269  3272  4583  4594
* EPSGN  $0060   143
* EQULTK $00B2   354
  ERBRK  $001E   475  4378
  EREXIT $E0F9  4370  4384  4388  4397  4401  4407  4443  4519
  EREXIX $E104  4371  4376
  EREXIY $E109  4377  4379
  ERLOAD $001D   435  4489
  ERR    $A369   472   604   605
  ERR01  $A19E   386   440
  ERR02  $A1AC   387   441
  ERR03  $A1B5   388   442
  ERR04  $A1C2   389   443
  ERR05  $A1D0   390   444
  ERR06  $A1E2   391   445
  ERR07  $A1F0   392   446







CROSS REFERENCE......PAGE    5


  ERR08  $A1FF   393   447
  ERR09  $A210   394   448
  ERR10  $A225   395   449
  ERR11  $A235   397   450
  ERR12  $A23B   399   451
  ERR13  $A24F   401   452
  ERR14  $A25A   403   453
  ERR15  $A26A   405   454
  ERR16  $A272   407   455
  ERR17  $A27F   409   456
  ERR18  $A290   412   457
  ERR19  $A29D   414   458
  ERR20  $A2AA   416   459
  ERR21  $A2BA   418   460
  ERR22  $A2C8   420   461
  ERR23  $A2D5   422   462
  ERR24  $A2E4   424   463
  ERR25  $A2ED   426   464
  ERR26  $A300   428   465
  ERR27  $A30E   430   466
  ERR28  $A31E   432   467
  ERR29  $A324   434   468
  ERR30  $A383   469   477
  ERRBD  $0018   425  1538
  ERRBS  $0012   413  2433
  ERRCN  $001A   429  1141
* ERRCRD $A44E   593
  ERRDD  $0013   415  2437
  ERRDIR $B3A6  1548  1585  2633  2641
  ERRDVO $0014   417  3690
  ERRFC  $000E   404  2435
  ERRFIN $A469   606  1138
  ERRGO2 $B4D2  2795  2836
  ERRGO3 $B24A  2436  2439
* ERRGO4 $AD9B  1799
  ERRGO5 $AD32  1701  1744
  ERRGUF $B3AE  2638  2689
  ERRID  $0015   419  2636
  ERRLS  $0017   423   748  3007
  ERRNF  $000A   396  1743
  ERROD  $000D   402  1698
  ERROM  $0010   408   581  2834
  ERROR  $A437   582   749  1144  1215  1539  1744  1799  1988  2436  2639

                2795  3008  3436  3691  4379  4490
  ERROV  $000F   406  3435
  ERRRG  $000C   400  1212
  ERRSN  $000B   398  1987
  ERRST  $0019   427  2794
  ERRTAB $A328   440   586   588
  ERRTM  $0016   421  1798
  ERRUF  $001B   431  2638
  ERRUS  $0011   411  1214
  ERVFY  $001C   433  4467
  EVAL   $AE83  1811  1924  2996
  EVAL0  $AE8A  1927  1949
  EVAL1  $AE8F  1929  1945







CROSS REFERENCE......PAGE    6


  EVAL2  $AE92  1928  1930
  EVAL3  $AECC  1951  1959
  EVAL4  $AEE3  1960  1970
  EXCHQT $A911  1240  1251
  EXIGNT $ACFC  1725  1726  1729
  EXP    $BFED   247  4183  4206  4233
  EXP1   $E00E  4252  4254
  EXPCON $BFC4  4220  4273  4274
  EXPSGN $0060   141  3915  3918  3967
  FAC    $0061   145  3309  3851
  FACEXP $0061   146  1258  1345  1894  1921  2360  3236  3285  3299  3302

                3321  3367  3393  3397  3399  3485  3489  3579  3584  3591

                3613  3629  3630  3632  3722  3750  3758  3765  3771  3778

                3797  3813  3840  3866  3876  3961  4010  4210  4250  4264

                4265  4357  4360  4674
  FACHO  $0062   147  1030  1031  1892  2066  2625  2626  3340  3346  3348

                3349  3381  3383  3390  3401  3410  3412  3433  3526  3637

                3675  3696  3719  3747  3787  3789  3791  3817  3860  3861

                3862  3880  3993  3994  4079  4081  4327  4348  4350
  FACLO  $0065   151  1272  1333  1370  1387  1886  1964  2005  2012  2064

                2118  2123  2353  2992  3134  3150  3152  3196  3331  3358

                3372  3374  3387  3404  3419  3421  3427  3520  3646  3666

                3702  3708  3736  3795  3831  3877  3883  4069  4072  4336

                4347  4349
  FACMO  $0064   150  1330  1368  1379  1384  1391  1394  1395  1398  1888

                1967  2003  2010  2017  2018  2044  2047  2062  2074  2075

                2089  2091  2115  2128  2352  2747  2748  2803  2804  2994

                3005  3051  3052  3194  3240  3241  3334  3355  3356  3375

                3377  3388  3403  3416  3418  3429  3522  3643  3669  3700

                3711  3739  3796  3825  3882  4073  4075  4330  4352  4354

  FACMOH $0063   148  1369  1890  2063  3337  3350  3354  3378  3380  3389

                3402  3413  3415  3431  3524  3640  3672  3698  3714  3742

                3821  3881  4076  4078  4333  4351  4353
  FACOV  $0070   164  2024  2805  3292  3312  3316  3328  3357  3359  3371

                3386  3405  3422  3424  3425  3439  3453  3518  3552  3687

                3723  3752  3761  3769  3773  3798  3829  3870  4236  4270

                4358
  FACSGN $0066   152  1028  1346  1757  1875  1919  2164  2170  2358  3234

                3280  3282  3304  3368  3407  3409  3571  3595  3597  3717

                3745  3755  3780  3799  3801  3811  3833  3844  3858  3871

                3872  3959  4002  4006  4212  4214  4356  4623  4627  4653

                4670
  FADD   $B867  1760  3278  3289  3492  3504  4311  4346  4609  4635
  FADD1  $B897  3310  3313
  FADD2  $B8FE  3320  3370
  FADD4  $B8A3  3288  3300  3319
  FADD5  $B862  3287  3314
  FADDA  $B893  3301  3311
  FADDC  $B877  3296  3612
  FADDH  $B849  3276  4038  4626
  FADDT  $B86A   262  3286  3290  3962
  FADFLT $B8D2  3341  3800  3879
  FBUFFR $0100   178  4005  4060  4065  4101  4106  4118  4137  4139  4147

                4149  4151  4153  4155  4156  4157
  FBUFPT $0071   169  1350  1353  1354  1362  2034  4007  4057  4066  4097

                4107  4117







CROSS REFERENCE......PAGE    7


  FCERR  $B248  1375  2366  2435  3187  3484  4748  4749
  FCERR2 $AA24  1343  1375
  FCOMP  $BC5B  2141  2365  3803  4024  4029  4195
  FCOMPC $BC92  3814  3818  3822  3826  3833
  FCOMPD $BC98  3834  3836
  FCOMPN $BC5D  1763  3804
  FCOMPS $BC31  3781  3836
  FCSIGN $BC2F  3780  3812
  FDCEND $BF3A  2037  4113  4169
  FDECPT $0047   112  4096  4108
  FDIV   $BB0F  3495  3624  4658  4680
  FDIVF  $BB07  3621  4614
  FDIVT  $BB12   268  3623  3625
  FFLOOP $A38F   485   503
  FFRTS  $A3B7   487   498   504
  FHALF  $BF11  3276  3277  4159  4180  4181
  FIN    $BCF3  1674  1929  3221  3886
  FIN1   $BD0F  3897  3900
  FINC   $BD0A  3895  3898  3926  3953
  FINDG1 $BD71  3946  3948
  FINDGQ $BD0D  3891  3899
  FINDIG $BD6A  3899  3944
  FINDIV $BD52  3933  3935
  FINDP  $BD41  3901  3924
  FINE   $BD47  3903  3919  3927
  FINE1  $BD49  3923  3928
  FINEC  $BD30  3911  3913  3916  3981
  FINEC1 $BD2E  3907  3909  3915
  FINEC2 $BD35  3914  3918
  FINEDG $BD91  3917  3963
  FINGO  $AFD6  2100  2104
  FINI   $A52A   703  4501
  FININ1 $A576   741   751
  FININL $AACA   751  1452
  FINLOG $BD7E  1377  3506  3952  3954
  FINML6 $BAED  1361  3610
  FINMUL $BD5B  3932  3937  3939
  FINNOW $B18F  2332  2334
  FINPTR $B185  2255  2328
  FINQNG $BD62  3931  3936  3940
  FINRE2 $AE11  1858  1860
  FINREL $AE07  1830  1854
  FINZLP $BCF7  3888  3890
  FLINRT $A640   841   861
  FLNRTS $A641   846   853   854   862   863   925   928
  FLOAD  $A677   890  4507
  FLOAT  $BC3C  2073  2189  3787  3957
  FLOATB $BC4F  2060  3797
  FLOATC $BC49  3794  3997
  FLOATS $BC44  2628  3791
  FLPINT $B1AA  2351  4756  4757
  FMAPTR $B194  2337  2440  2446
  FMULT  $BA28  3509  4019  4205  4235  4285  4289  4302  4343
  FMULTT $BA2B   266  3510
  FNDFOR $A38A   480  1002  1208  1741
  FNDLIN $A613   633   835   921







CROSS REFERENCE......PAGE    8


  FNDLNC $A617   837   860  1193
  FNDLO1 $A62E   847   850
  FNDOER $B3F4  1972  2672
  FNDVAR $B52A  2844  2991
  FNEDG1 $BD33  3905  3917
  FNTK   $00A5   333  1970  2664
  FNWAIT $B82D   221  3263
  FONE   $B9BC  1037  1038  3468  3496  3497  4678  4679
  FOR    $A742   204   999
  FORPNT $0049   116   117   488   491   493   496  1047  1049  1207  1312

                1313  1331  1334  1338  1412  1415  1418  1617  1618  1739

                1740  1758  1759  3730  3731
  FORPSH $AE43  1036  1885
  FORSIZ $0012   479   501  1005
  FORTK  $0081   285   486  1051
  FOULDY $BEC4  4114  4117
  FOUR6  $0053   126  2862  2879  2952  2954  4766
  FOUT   $BDDD  1447  4000
  FOUT1  $BDE7  4003  4005
  FOUT11 $BEC6  4118  4121
  FOUT12 $BED3  4123  4125
  FOUT14 $BEE3  4128  4137
  FOUT15 $BEEF  4143  4145
  FOUT16 $BE64  4062  4066
  FOUT17 $BF07  4127  4154
  FOUT19 $BF04  4012  4153
  FOUT2  $BE6A  4069  4084  4086  4116
  FOUT20 $BF0C  4152  4156
  FOUT3  $BE16  4027  4034
  FOUT37 $BE00  4015  4017
  FOUT38 $BE21  4030  4032
  FOUT39 $BE53  4055  4057
  FOUT4  $BE0B  4022  4037
  FOUT40 $BE90  4085  4087
  FOUT41 $BE8E  4083  4086
  FOUT5  $BE2F  4031  4038
  FOUT6  $BE48  4046  4051
  FOUT7  $BE09  4016  4021
  FOUT8  $BE66  4056  4067
  FOUT9  $BE28  4026  4035
  FOUTBL $BF16  2037  4071  4074  4077  4080  4113  4115  4161
  FOUTC  $BDDF  2741  3998  4001
  FOUTIM $BE68  2038  4068
  FOUTPI $BE47  4044  4050
  FOUTYP $BE97  4088  4091
  FPWR1  $BF9E  4191  4196  4199
  FPWRT  $BF7B   270  4183
  FPWRT1 $BF84  4185  4187
  FR4    $E2EA  4620  4621  4633  4634  4663
  FRE    $B37D   242  2613
  FREFAC $B6A6  1341  1502  2147  2615  3051
  FREMES $E473  4797  4798  4823
  FREPLA $B6D5  3077  3079
  FRERTS $B6EB  3084  3086  3091
  FRESPC $0035   103  2829  2830  3040  3045  3046  3048
  FRESTR $B6A3  3050  3176  4600







CROSS REFERENCE......PAGE    9


  FRETMP $B6AA  2153  3013  3017  3053  3116
  FRETMS $B6DB  1409  3055  3083
  FRETOP $0033   102   551   554   572   575   882   883  1380  1385  2618

                2621  2818  2819  2827  2828  2844  2845  2936  2939  2977

                2978  3069  3071  3075  3076  3078  4784  4785
  FRETRT $B6D6  3068  3070  3072  3080
  FRMEV1 $ADA4  1801  1803
  FRMEVL $AD9E  1252  1320  1444  1786  1800  1977  2084  2356  4599
  FRMNUM $AD8A  1027  1044  1786  2711  3192  3230  4416
  FSUB   $B850  3279  3498  4622  4689
  FSUBT  $B853   264  3280  4271  4619
  FUNDSP $A052   238  2104  2106
  GARBA2 $B526   563  2616  2837  2842
  GARBAG $B516  2823  2826  2834
  GARBFL $000F    77  2814  2835  2839
  GET    $AB7B   236  1548
  GETADR $B7F7  3231  3234  3249  4417
  GETAGN $ABD6  1588  1599
  GETBPT $A5C7   796   828
  GETBYT $B79E  1266  1422  1552  1568  2095  3139  3192  3233  4552  4575

  GETCMP $B066  2169  2174
* GETCON $B818  3251
  GETDEF $B2EA  2445  2526
  GETDTL $AB57  1528  1531
  GETERR $A456   596   602
  GETFNM $B3E1  2640  2664  2672
  GETFOR $AD24  1735  1738  1785
  GETNTH $AC4A  1639  1641
  GETNUM $B7EB  3230  3258  3263
  GETSPA $B4F4  2751  2814
  GETSPT $AA2C  1340  1378
  GETSTK $A3FB   543  1011  1162  1810
  GETTIM $AF84  2031  2057  2061
  GETTTY $AB92  1550  1558
  GINLIN $AC03  1603  1606
  GIVAYF $B391  1969  2050  2132  2623  2632  4752  4753
  GLET   $A804  1089  1099
  GMOVMF $E0F6  4364  4648
  GOBADV $B138  2285  2290
  GOFLOT $B07B  2187  2189
  GOFUC  $B798  3141  3182  3187  3195  3235  3238
  GOGO   $B5B8  2918  2921
  GOLST  $A6A4   916   917   920
  GOMLDV $E00B  4253  4258
  GOMOVF $AFA0  2052  2056  2069  2071  2074
  GONE   $A7E1   629  1081  1083  1101
  GONE2  $A7EF  1088  1275
  GONE3  $A7ED  1085  1087  1265
  GONPRC $AF0F  1962  1990
  GOOO   $AF5D  2022  2041
  GOOOOO $AF6E  2042  2051
  GOOVER $BADF  3586  3599  3603  3609  3614  3633
  GORDY  $A854  1137  1139
  GORTS  $A8D1  1204  1205
  GOSUB  $A883   216  1161
  GOSUTK $008D   300  1171  1210  1268







CROSS REFERENCE......PAGE   10


  GOTARY $B24D  2423  2437
  GOTK   $00CB   383  1103
  GOTNUM $AA27  1374  1376
  GOTO   $A8A0   212  1108  1174  1176  1264
  GOTOTK $0089   295  1254  1270
  GRBPAS $B606  2886  2963
  GRBPNT $004E   121  2847  2848  2950  2951  2963  2964  2971  2985  2990

  GRBRTS $B601  2958  2960  2965
  GRBTOP $005F   138  2851  2852  2941  2944  2946  2947
  GREASE $B2B9  2494  2497
  GREATK $00B1   352  1816  1818  1832
  GRODY  $A714   940   952   965   976
  GTBYTC $B79B  1482  3188
  HAVFOR $AD35  1742  1745
  HIGHDS $0058   132   526   528   530   533   537   539   560   566   682

                 687  2303  2304  2306  2307  2979  2980  2984  2987  2988

  HIGHTR $005A   133   509   513   519   522   524   532   536   538   680

                 684  2297  2298  2973  2976
  ICRNCH $0304   184   756
  IERROR $0300   182   582  4717  4816
  IEVAL  $030A   187  1924
  IF     $A928   214  1252
  IGONE  $0308   186  1083
  IMAIN  $0302   183   618
  INCFAC $B96F  3427  3775
  INCFRT $B97D  3426  3428  3430  3432  3434
  INCHR  $E112   739  4387
  INCRND $BC23  3775  4239
  INDEX  $0022    89   511   521   527   546   548   708   709   712   716

                 720   723   724   727   728   729  1289  1294  1296  1299

                1372  1508  2485  2582  3033  3034  3039  3053  3054  3058

                3061  3064  3080  3081  3121  3122  3124  3563  3737  3740

                3743  3748  3751
  INDEX1 $0022    90   587   589   596   637   639   662   664   666   670

                1034  1035  1838  1840  1879  1880  1882  1896  2556  2855

                2856  2868  2869  2887  2888  2890  2893  2896  2900  2908

                2912  2913  2915  2916  2923  2926  2929  2932  2935  2948

                2949  2956  2957  2959  2960  3184  3205  3208  3210  3557

                3558  3560  3566  3569  3577  3704  3705  3707  3710  3713

                3716  3721  3733  3734  4323  4324  4326  4329  4332  4335

                4601  4602
  INDEX2 $0024    91   641   648   660   667   671  1751  3209  3214  3216

                3219  3224  3803  3804  3806  3810  3815  3820  3824  3830

  INDICE $0064   149  2392  2394  2534  2536  2553  2557
  INDLOP $B1DB  2374  2399
  INIT   $E394   200  4723
  INIT20 $E421  4790  4792
  INITAT $E3A2  2009  2011  4730  4737  4760  4761
  INITCZ $E3BF  4724  4745  4760
  INITMS $E422  4725  4794
  INITV  $E453  4723  4814  4814
  INITV1 $E455  4815  4818
  INLIN  $A560   619   737  1606
  INLINC $A562   739   746
  INLOOP $AC15  1616  1693
  INLPN1 $B30F  2543  2547







CROSS REFERENCE......PAGE   11


  INLPN2 $B30E  2538  2546
  INLPNM $B2F2  2530  2560
  INPCO1 $AC0F  1564  1613
  INPCOM $A9DA  1338  1672
  INPCON $AC0D  1597  1612
  INPFLG $0011    80  1526  1613  1629  1650  1717
  INPPTR $0043   110  1614  1615  1623  1624  1684  1685  1715  1716  1721

  INPRT  $BDC2   610  3988
  INPRTS $ACFB  1722  1724  1728
  INPUT  $ABBF   208  1579
  INPUTN $ABA5   207  1568
  INT    $BCCC   239  3866  4192  4254  4616
  INTEGR $0007    68  2117  2120  2125  2130  3878  4198  4255
  INTERR $B09C  2203  2224
  INTFLG $000E    76  1316  1675  2041  2206  2226  2369  2405
  INTIDX $B1B2  2355  2380
  INTRTS $BCF2  3868  3885
  INTXT  $A371   473  3988  3989
  IODONE $ABB5  1421  1574  1594
  IORELE $ABB7  1566  1575
  IQPLOP $0306   185   977
  ISARY  $B1D1  2238  2368
  ISCNTC $A82C   941  1056  1118
  ISCRTS $A82B  1087  1117
  ISFUN  $AFA7  1975  2077
  ISLETC $B113  1930  2201  2209  2214  2263
  ISLRTS $B11C  2264  2268
  ISSEC  $B0AF  2208  2211
  ISVAR  $AF28  1932  2016
  ISVRET $AF2B  2017  2271
  JERXIT $E1D1  4460  4511  4519
  JMPER  $0054   127  2105  2107  2108  3158  3167  4746
  JSRGM  $B1A0  2342  2344
  KLOOP  $A582   760   765   810
  KLOOP1 $A5A4   774   777
  LASNUM $00C7   378  2081  2081
  LASTPT $0017    87  2808  3083  3085  3089  4770
  LD100  $BB7A  3652  3679
  LDFONE $A78B  1032  1033  1037
  LDZR   $B123  2274  2282
  LEFTD  $B700   258  3103
  LEN    $B77C   253  3174
  LEN1   $B782  3174  3176  3181  3198
  LESSTK $00B3   356  1818
  LET    $A9A5   211  1001  1099  1311
  LINGET $A96B   630   920   927  1176  1277  1282
* LINLEN $0028    56
  LINNUM $0014    85   689   690   844   850   931   932   935   936   948

                 950  1180  1182  1283  1284  1288  1292  1297  1298  1300

                1301  1302  1303  1304  1306  1308  4428
  LINPRT $BDCD   954  3993  4806
  LIST   $A69C   230   916
  LIST4  $A6C9   933   937   975
  LNKPRG $A533   675   704   706  4506
  LNKRTS $A55F   713   731
  LOFBUF $00FF   177  2744  2745







CROSS REFERENCE......PAGE   12


  LOG    $B9EA   246  3481  4202
  LOG1   $B9F4  3483  3485
  LOG2   $B9E5  3477  3507  3508
  LOGCN2 $B9C1  3469  3499  3500
  LOGEB2 $BFBF  4219  4233  4234
  LOGERR $B9F1  3482  3484
  LOOPDN $AD78  1767  1777
  LOPFDA $B21C  2410  2432
  LOPFDV $B228  2413  2416
  LOPFN  $B0FB  2246  2249
  LOPFND $B0F1  2244  2260
  LOPPTA $B286  2467  2487
  LOPREL $ADBB  1815  1828
  LOWDS  $005D   137   142
  LOWTR  $005F   140   143   510   514   636   640   642   644   652   655

                 700   838   839   840   845   852   856   859   939   944

                 947   966   969   972   973   974  1195  1201  2243  2244

                2250  2254  2258  2293  2294  2313  2316  2319  2321  2323

                2325  2327  2328  2331  2340  2341  2410  2411  2417  2422

                2425  2427  2430  2431  2443  2452  2457  2466  2478  2481

                2516  2518  2521  2522  2526  2537  2542  2583  2586  2972

                2974
  LPOPER $ADA9  1806  1873
  LSTEND $A6BB   923   929
  LSTPNT $0049   114   953   956   986
  LUK4IT $A8BC  1183  1191
  LUKALL $A8C0  1188  1190  1193
  MAIN   $A480   618   624   677   705
  MAIN1  $A49C   627   630
  MEMSIZ $0037   104   880   881  2842  2843  4373  4374  4782  4783  4800

                4804
  MID2   $B748  3137  3140
  MIDD   $B737   260  3133
  MINUTK $00AB   345   918   924  1946  3906
  MLDEXP $BAB9  3582  4279
  MLDVEX $BAD4  3597  4253
  MLEX10 $BDA0  3965  3970
  MLEXMI $BDAE  3968  3980
  MLOOP  $A4DF   663   666   669   673
  MLTPL1 $BA5E  3527  3531
  MLTPL2 $BA61  3533  3555
  MLTPL3 $BA7D  3534  3548
  MLTPLY $BA59  3519  3521  3523  3525  3529
  MORCO1 $AAEE  1473  1474
  MOREN1 $A3EC   529   531   534   541
  MORLIN $A971  1285  1310
  MORSTS $A807  1066  1100
  MOV1F  $BBCA  3727  4283  4642
  MOV2F  $BBC7  3725  4292
  MOVAF  $BC0C  1356  3604  3617  3763  3955  4179  4610  4615
  MOVAFL $BC11  3765  3768
  MOVCHG $E3E2  4761  4764
  MOVDO  $B68C  3014  3035  3126
  MOVEF  $BC0F  3764  4249
  MOVFA  $BBFC  2121  3291  3754
  MOVFA1 $BBFE  3755  4199







CROSS REFERENCE......PAGE   13


  MOVFAL $BC02  3757  3760
  MOVFM  $BBA2  1039  1754  1937  2076  3622  3704  4182  4340  4651
  MOVFR  $BB8F  3528  3689  3695
  MOVINS $B67A  1404  3010  3020
  MOVLP  $B690  3038  3042
  MOVMF  $BBD4  2697  3729  3732  4189  4364
  MOVRTS $BC1A  3770  3772  3774  3776
  MOVSTR $B688  2790  3033
  MOVVF  $BBD0  1336  1761  3730
  MUL10  $BAE2  1352  1366  3604  3937  3948  4032
  MUL10R $BAF8  3606  3615
  MULDIV $BAB7  3512  3581  3631
  MULSHF $B983  3437  3530
  MULTRT $BA8B  3511  3556
  MUSTCR $A5AC   778   781
  MVDONE $B699  3036  3044
  MVSTRT $B6A2  3047  3049
  N0999  $BDB3  3985  4027  4028
  N32768 $B1A5  2350  2363  2364
  N9999  $BDB8  3986  4022  4023
* NCMPOS $001E  1471
  NCRNCH $A57C   757  4812
  NEGFAC $B947  3342  3407
  NEGFCH $B94D  3410  3849
  NEGHLF $B9E0  3476  3502  3503
  NEGOP  $BFB4   276  3943  4210  4272  4632  4638  4673  4692
  NEGPRC $ADFA  1847  1992
  NEGRTS $BFBE  4209  4211  4215
* NEGTAB $A095   275
  NEGXQS $BD67  3941  3943
  NERROR $E38B  4718  4812
  NERROX $A43A   583  4720
  NEVAL  $AE86  1925  4812
  NEWCHR $AA9D  1432  1451
  NEWSGO $AD75  1776  1783
  NEWSTT $A7AE  1056  1086  1175  1776
  NEXT   $AD1E   205  1735
  NGONE  $A7E4  1084  4812
* NGONE1 $A7E7  1085
  NMAIN  $A483   619  4812
  NMARY1 $B237  2420  2424
  NMIL   $BDBD  3987  4017  4018
  NODATT $A5DE   806   808
  NODEL  $A4ED   634   674
  NODELC $A508   685   687
  NOFREF $B384  2614  2616
  NOML6  $AA07  1358  1362
  NONONO $B1CC  2359  2366
  NORM1  $B929  3347  3391
  NORM2  $B91D  3385  3391
  NORM3  $B8DB  3346  3365
  NORMAL $B8D7  3341  3343  3703  4361
  NOSEC  $B0BA  2210  2216
  NOTABR $AB13  1443  1489  1494
  NOTDIM $B296  2470  2477
  NOTEVE $B159  2301  2303







CROSS REFERENCE......PAGE   14


  NOTEVL $B128  2273  2277
  NOTFDD $B261  2415  2446
  NOTFL1 $B331  2564  2566
  NOTFLT $B274  2453  2455
  NOTFNS $B11D  2248  2269
  NOTIT  $B109  2251  2257
  NOTOL  $A753  1003  1008
  NOTOP  $AED4   278  1963
  NOTQTI $ABCE  1573  1580  1585
  NOTSTR $B0C4  2217  2221
* NOTTAB $A098   277
  NOTTK  $00A8   339  1959
  NOWGE1 $AC7D  1668  1670
  NOWGET $AC72  1659  1664
  NOWLIN $ACD1  1697  1709
  NQPLOP $A71A   978  4812
  NREADY $E391  4719  4721
  NTHIS  $A5F5   794   820
  NTHIS1 $A5F9   822   824
  NUMINS $AC89  1649  1674
  NUMLEV $0017    63   544   544
  NXTCMP $B05B  2167  2179
  NXTLGC $A99F  1307  1309
  OKGOTO $A937  1255  1258
  OKMSG  $A364   471  4477  4478
  OKNORM $AFD1  2082  2101
  OLDLIN $003B   106  1131  1132  1148  1149
  OLDOV  $0056   129  3293  3308  3327  3370  4248  4269
  OLDTXT $003D   107   902  1062  1063  1127  1128  1142  1145  1543  1544

  OMERR  $A435   545   549   574   576   581  2545
  OMERR1 $B30B  2489  2496  2545  2598  2609
  ONEFUN $00B4   358  1973  2104  2104  2106  2106
  ONEON  $A79F  1042  1045
  ONGLOP $A957  1269  1272  1279
  ONGLP1 $A95F  1273  1276
  ONGOTO $A94B   220  1266
  ONGRTS $A96A  1281  1285
  OPMASK $004D   120  1813  1823  1824  1826  1829  1862  1872  2146
  OPPTR  $004B   119  1849  1903
  OPTAB  $A080   261  1843  1861  1864  1867  1869  1876
  OROP   $AFE6   274  2110
  OUTCH  $E10C  1523  4383
  OUTDO  $AB47   599   958   997  1460  1465  1509  1523
  OUTQST $AB45   594  1522  1604  1640
* OUTRTS $AB4A  1524
  OUTSPC $AB3B  1450  1499  1515  1605
  OVERR  $B97E  3400  3435  3603  3969
  PANIC  $E37B   201  4710
  PAOC   $E219  4509  4514  4571
  PAOC15 $E257  4537  4599
  PAOC20 $E206  4536  4538  4543  4556  4581  4590  4597
  PAOC30 $E20E  4551  4564  4598
  PAOC32 $E211  4565  4574
* PAOC40 $E216  4567
  PAOC5  $E23F  4587  4589
* PAOC7  $E251  4597







CROSS REFERENCE......PAGE   15


  PAOCX  $E20D  4557  4560  4566
  PARCHK $AEF1  1974  1976  2101  2677
* PATCHS $BF53  4177
  PEEK   $B80D   252  3245
  PI     $00FF    62   762   979  1933
  PI2    $E2E0  4607  4608  4661  4687  4688
  PIVAL  $AEA8  1935  1936  1939
  PLOOP  $A6F3   958   978   980   982
  PLOOP1 $A700   960   964
  PLOT   $FFF0  1469  1480  2630  4414
  PLSV   $E1D4  4438  4451  4524
  PLSV7  $E200  4539  4544  4551  4582  4591
  PLUSTK $00AA   343  1832  1948  3910
  POKE   $B824   226  3258
  POKER  $0014    84  3242  3243  3245  3247  3251  3254  3256  3261  3271

  POLY   $E059  4275  4290
  POLY1  $E05D  4286  4292
  POLY2  $E070  4302  4315
  POLY3  $E06C  4298  4300
  POLY4  $E07D  4307  4309
  POLYPT $0071   167  4281  4282  4290  4291  4293  4295  4299  4300  4301

                4303  4304  4309  4310
  POLYX  $E043  3501  4281  4641  4683
  POS    $B39E   243  2629
  POSINT $B1B8  2357  3193
  PREAM  $B761  3103  3128  3140  3154
  PRINT  $AAA0   228  1430  1433
  PRINTC $AAA2  1434  1495
  PRINTK $0099   314   775
  PRINTN $AA80   227  1420
  PRIT3  $A737   989   994   998
  PRIT4  $A6EF   956   996
  PRTRTS $AAE7  1434  1458  1467  1507
  PTDORL $A09B   279  1861
  PTRGET $B08B  1311  1616  1738  2016  2196  2645
  PTRGT1 $B090  2192  2198
  PTRGT2 $B092  2199  2668
  PTRGT3 $B09F  2202  2204
  PULMOR $B725  3123  3125
  PULSTK $AE66  1853  1865  1904
  PUSHF  $AE38  1046  1877
  PUSHF1 $AE33  1871  1875
  PUTNEW $B4CA  2785  2791  3018  3102  3127
  PUTNW1 $B4D5  2793  2796
* Q      $007F   281
  QCHNUM $AE5D  1844  1900
  QCOMP  $B061  2143  2171
  QDATA  $AC41  1630  1637
  QDECT1 $A4D7   658   661
  QDOT   $AEAD  1934  1944
  QINLIN $ABF9  1588  1602  1641
  QINT   $BC9B  1367  2367  3239  3840  3869  4039
  QINT1  $BCBB  3853  3857
  QINTGO $B1CE  2362  2367
  QINTGR $A9C2  1326  1676
  QINTRT $BCBA  3832  3856







CROSS REFERENCE......PAGE   16


  QISHFT $BCAF  3845  3851
  QNUM   $0080   173  1373
  QOP    $AE58  1831  1833  1897
  QOPGO  $AE5B  1852  1899
  QOPRTS $AE80  1899  1921
  QPLOP  $A717   967   977
  QPLUS  $BD06  3893  3896
  QPREC  $ADF0  1842  1863
  QPREC1 $AE19  1850  1864
  QSETNR $E0BE  4321  4338
  QSHFT  $BB4C  3649  3655  3680
  QSTATV $AF92  2054  2068
  QSTAVR $B13B  2280  2284  2286
  QVARIA $AA3D  1382  1387
  RADDC  $E092  4318  4344  4345
  RDBAS  $FFF3  4322  4410
  RDTIM  $FFDE  2061  4394
  READ   $AC06   210  1607
  READST $FFB7  1591  2072  4404
  READY  $E386   976  1139  4716  4728
  READYX $A474   609   612  4721
  REARTS $A434   552   555   573   577
  REASAV $A416   559   562
  REASON $A408   505   551  2447  2497  4796
  REASTO $A421   565   568
  REDDY  $A376   474   612   613  4498  4499
  REM    $A93B   218  1260
  REMER  $A919  1244  1250
  REMN   $A909  1177  1236  1260
  REMRTS $A905  1231  1233  1245  1247
  REMTK  $008F   303   809
  RESCON $A5B8   789   826
  RESCR1 $A72F   990   992
  RESER  $A5B6   787   792
  RESETC $AC71  1656  1663
  RESFIN $A827  1113  1115  1719
  RESHO  $0026    92  3437  3514  3545  3547  3548  3695
  RESLO  $0029    96  3517  3536  3538  3551  3651  3701
  RESLST $A09E   282   791   823   825   991   995
  RESMO  $0028    95  3516  3539  3541  3550  3699
  RESMOH $0027    93  3515  3542  3544  3549  3697
  RESRCH $A72C   988   993
  RESTOR $A81D   215   890  1109
  RETU1  $A8EB  1211  1217
  RETURN $A8D2   217  1205
  RIGHTD $B72C   259  3128
  RLEFT  $B706  3106  3132
  RLEFT1 $B70C  3106  3110
  RLEFT2 $B70D  3111  3148
  RLEFT3 $B70E  3112  3151  3153
  RMULC  $E08D  4317  4341  4342
  RND    $E097   245  4319
  RND1   $E0D3  4320  4347
  RNDRTS $B946  3398  3406
  RNDSHF $B938  3399  3777
  RNDX   $008B   175  4338  4339  4362  4363







CROSS REFERENCE......PAGE   17


  ROLSHF $B9B0  3318  3460  3863
  ROMLOC $A000    55   199  2004  2006
  ROUND  $BC1B  1327  1885  3626  3732  3763  3771
  RUN    $A871   213  1153
  RUNC   $A659   674   703   876  1158
  RUNC2  $A897  1160  1173
  SAREG  $030C   190  4424  4431
  SAVEIT $AA90  1423  1426
  SAVQUO $BB3F  3638  3641  3644  3647  3661  3663
  SCRATH $A642   237   863
  SCRATK $00A2   324  1090
  SCRTCH $A644   864  4810
  SETMSG $FF90   616  1155  4412
  SETQUT $AC65  1651  1657
  SETTIM $FFDB  1371  4393
  SGN    $BC39   238  3786
  SGNFLG $0067   154  3894  3940
  SHFARG $BB4F  3657  3678
  SHFTR2 $B985  3438  3449  3450
  SHFTR3 $B9A6  3455  3465
  SHFTR4 $B9AC  3456  3458
  SHFTRT $B9BA  3454  3466
  SHIFTR $B999  3287  3448  3854
  SIGN   $BC2B  1045  3481  3778  3786  3809  4319
  SIGNRT $BC38  3779  3783  3785
  SIN    $E26B   249  4610  4645
  SIN1   $E29D  4625  4632  4660
  SIN2   $E2A0  4628  4633
  SIN3   $E2AD  4637  4639
  SINCON $E2EF  4639  4640  4664
  SIZE   $0055   128  2953  2966  2970  2982
  SIZEOK $B65D  3006  3009
  SNERR  $AF08  1102  1216  1535  1874  1985  1987  2203  2285  2718  4567

  SNERR1 $A80B  1102  1104
  SNERR2 $A8E8  1216  1271
  SNERR3 $A953  1270  1291
  SNERR4 $AB5F  1484  1535
  SNERR5 $AE30  1825  1874
  SNERRX $A80E  1091  1103
  SNGFLT $B3A2  2631  3175  3186  3257
  SPCTK  $00A6   335  1437
  SPREG  $030F   193  4422  4435
  SQR    $BF71   244  4179
  SQR05  $B9D6  3474  3490  3491
  SQR20  $B9DB  3475  3493  3494
  SQUEEZ $B936  3384  3398
  ST2TXT $B7E2  1671  1958  3225
  STASGN $B056  2159  2161  2164
  STCURL $AB5B  1530  1533
  STEPTK $00A9   341  1041
  STKEND $01FB    60   896  4726
  STKINI $A67A   603   891  4713
  STKRTS $A68D   878   904   919
  STMDSP $A00C   203  1094  1096
  STOLD  $E000  4240  4248
  STOLDX $BFFD  4238  4240







CROSS REFERENCE......PAGE   18


  STOLOP $A522   699   702
  STOML1 $B337  2567  2570
  STOMLT $B27D  2458  2461
  STOP   $A82F   219  1119
  STOPC  $A832  1119  1121
  STORDO $B83C  3267  3269
* STPEND $A841  1129
  STR1   $A5E5   812   819
  STRCMP $B02E  2134  2144
  STRCP  $B4BF  2783  2786
  STRD   $B465   254  2739
  STRDN2 $AC91  1673  1677
  STRDON $AA9A  1431  1446
  STREND $0031   101   506   507   693   694   888   889  2295  2296  2412

                2414  2498  2499  2515  2519  2619  2622  2822  2825  2849

                2850  2882  2884
  STRFI1 $B4A8  2766  2773
  STRFI2 $B4A9  2772  2774
  STRFIN $B4A4  2768  2771
  STRFRE $B50B  2824  2827
  STRGET $B497  2764  2770
  STRINI $B475  1399  2747  2787  3009
  STRLIT $B487  1448  1501  1957  2746  2756
  STRLT2 $B48D  1670  2759
  STRNAM $B0DB  2222  2233
  STRNEX $E0E3  4337  4355
  STRNG  $A5EE   770   816
  STRNG1 $006F   179  1402  1403  2759  2760  2765  2776  2778  2782  2788

                2789  2999  3001  3003  3015  3016  3021  3027  3030
  STRNG2 $0071   166  2777  2781  3203  3204  3225  3226
* STRNGI $006F   162
  STROU2 $BDDA  3990  3999
  STROUT $AB1E   606   614  1501  1542  1727  3999  4479  4500  4799  4809

  STRPR2 $AB28  1506  1512  1514
  STRPRT $AB21  1431  1449  1502  1584
  STRRTS $AF5C  2026  2028  2030  2040
  STRSIZ $0003    64  2792  2792  2792  2878  3088  4765
  STRSPA $B47D  2751  3096  3113
  STRST2 $B4B5  2779  2781
  STRTX2 $AEC6  1955  1957
  STRTXT $AEBD  1581  1952
  STUFFH $A5C9   763   767   772   776   780   797   813   815
  STXBUF $BEB2  4103  4107
  STXFND $B0EF  2243  2262
  STXFOR $AD27  1737  1739
  STXTPT $A68E   876   905  4505
  SUBFLG $0010    79   903  1000  2223  2235  2240  2644  2667
  SUBIT  $B8AF  3323  3325
  SVAR   $B559  2870  2875
  SVARGO $B561  2871  2874
  SVARS  $B54D  2858  2861
  SWAPLP $E01E  4263  4268
  SXREG  $030D   191  4425  4432
  SYNCHR $AEFF  1025  1107  1257  1315  1425  1554  1570  1583  1983  2649

                2665
  SYREG  $030E   192  4426  4433







CROSS REFERENCE......PAGE   19


  TABER  $AAF8  1436  1439  1478
  TABTK  $00A3   329  1435
  TAN    $E2B4   250  4642
  TANSGN $0012    82  4629  4631  4644  4654
  TEMPF1 $0057   130  3727  4284  4287  4288  4649  4650
  TEMPF2 $005C   134  3725  4312  4313
  TEMPF3 $004E   122  4187  4188  4193  4194  4203  4204  4646  4647  4656

                4657
  TEMPPT $0016    86   892  2791  2812  2857  3087  4775
  TEMPST $0019    88   891  2792  2853  2854  4774
  TENC   $BAF9  3616  3618  3619
  TENEXP $005E   142  2032  3922  3927  3930  3934  3938  3963  3973  3980

                4052  4126  4131
  THENTK $00A7   337  1256
  TIMELP $A9ED  1350  1365
  TIMEND $BF52  4115  4174
  TIMNUM $AA1D  1351  1355  1372
  TIMSTR $B46F  2039  2744
  TOTK   $00A4   331  1024  1106
  TRMNO1 $AB62  1527  1536
  TRMNOK $AB4D  1526  1681
  TRMOK  $AC9D  1678  1682
  TRMPOS $0009    71  1481  1488
  TRYAG2 $B4F6  2815  2841
  TRYAG3 $B501  2820  2822
  TRYAGN $AD0C  1540  1541  1732
  TRYMOR $A412   553   556
  TRYOFF $BAC4  3585  3589
  TSTDUN $A6E6   949   952
  TSTOP  $ADB8  1814  3019
  TSTR10 $AF27  2007  2014
  TSTROM $AF14  2002  2025  2051
  TURNON $B0D4  2220  2229
  TVAR   $B544  2857  2860
  TWOPI  $E2E5  4611  4612  4662
  TXTPTR $007A   172   620   621   757   785   820   830   833   908   911

                1015  1017  1057  1058  1065  1068  1073  1076  1079  1080

                1082  1122  1123  1146  1147  1163  1165  1186  1187  1200

                1203  1223  1225  1229  1230  1232  1244  1545  1546  1619

                1620  1625  1626  1642  1643  1653  1665  1666  1682  1683

                1688  1689  1700  1703  1706  1773  1775  1800  1802  1803

                1857  1859  1860  1952  1953  1984  2655  2660  2698  2700

                2703  2706  2720  2722  3201  3202  3206  3211  3227  3228

                3977  4474  4492
  TXTTAB $002B    98   706   707   835   836   866   868   869   873   906

                 909  1110  1112  1191  1192  4441  4457  4458  4778  4779

                4788  4789  4791  4794  4795  4802  4805
  TYPLIN $A6E8   951   953
  UMLCNT $B378  2601  2610
* UMLRTS $B37C  2612
  UMULT  $B34C  2482  2551  2582
  UMULTC $B35F  2592  2611
  UMULTD $B355  2572  2587
* UNPRTS $AE82  1922
  UNPSTK $AE64  1901  1903
* USEDEF $E40E  4782







CROSS REFERENCE......PAGE   20


  USERR  $A8E3  1194  1214
* USRLOC $A058   241
  USRPOK $0310   194   241  4747  4750  4751
  VAL    $B7AD   255  3198
  VAL2   $B7CD  3212  3214
* VALRTS $B7EA  3229
  VALTYP $000D    75  1318  1445  1648  1790  1834  1854  1926  2021  2145

                2205  2219  2371  2403  2613  2624  2807  3178
  VAREND $ACDF  1691  1715
  VARNAM $0045   111  2019  2020  2199  2227  2228  2233  2249  2252  2277

                2278  2312  2315  2376  2378  2382  2384  2419  2421  2451

                2456  2563  2566
  VAROK  $B143  2288  2291
  VARPNT $0047   113  2334  2335  2575  2578  2580  2651  2653  2685  2690

                2692  2696  2707  2709
  VARTAB $002D    99   638   646   647   649   651   656   679   683   695

                 696   872   875   884   885  1388  1392  2241  2242  2863

                2864  4439  4440  4496  4497
  VARTXT $004B   118  1621  1622  1686  1687
  VARY0  $ACEA  1718  1720
  VERCK  $000A    72  4450  4456  4462
  WAITER $B840  3271  3274
  WORDS  $E460  4807  4808  4822
  XSPAC  $AB0F  1486  1491
  XSPAC1 $AB19  1493  1499
  XSPAC2 $AB10  1492  1500
  ZEREMV $BADA  3582  3589  3600
  ZERITA $B2C8  2507  2509  2512
  ZERO   $BF13  1339  2274  2275  4160
  ZEROF1 $B8F9  3367  4186
  ZEROFC $B8F7  3200  3366  3394  3602
  ZEROML $B8FB  3368  3593
  ZERRTS $B848  3275  3297
  ZZ1    $01FF   831   832
  ZZ2    $0201  1557  1558
  ZZ3    $0202  1559  1560
  ZZ4    $01FF  1633  1634  1635
  ZZ5    $01FF  1454  1455  1456
  ZZ6    $AF2A  2271  2272

























































































